
onic.ko:     file format elf64-x86-64


Disassembly of section .text:

0000000000000000 <onic_probe>:
       0:	e8 00 00 00 00       	callq  5 <onic_probe+0x5>
       5:	55                   	push   %rbp
       6:	48 89 e5             	mov    %rsp,%rbp
       9:	41 57                	push   %r15
       b:	41 56                	push   %r14
       d:	41 55                	push   %r13
       f:	41 54                	push   %r12
      11:	49 89 fc             	mov    %rdi,%r12
      14:	53                   	push   %rbx
      15:	4d 8d bc 24 b0 00 00 	lea    0xb0(%r12),%r15
      1c:	00 
      1d:	48 83 ec 28          	sub    $0x28,%rsp
      21:	65 48 8b 04 25 28 00 	mov    %gs:0x28,%rax
      28:	00 00 
      2a:	48 89 45 d0          	mov    %rax,-0x30(%rbp)
      2e:	31 c0                	xor    %eax,%eax
      30:	e8 00 00 00 00       	callq  35 <onic_probe+0x35>
      35:	85 c0                	test   %eax,%eax
      37:	0f 88 41 02 00 00    	js     27e <onic_probe+0x27e>
      3d:	48 c7 c6 ff ff ff ff 	mov    $0xffffffffffffffff,%rsi
      44:	4c 89 ff             	mov    %r15,%rdi
      47:	e8 00 00 00 00       	callq  4c <onic_probe+0x4c>
      4c:	85 c0                	test   %eax,%eax
      4e:	41 89 c5             	mov    %eax,%r13d
      51:	0f 88 ff 02 00 00    	js     356 <onic_probe+0x356>
      57:	be ff ff ff ff       	mov    $0xffffffff,%esi
      5c:	4c 89 ff             	mov    %r15,%rdi
      5f:	e8 00 00 00 00       	callq  64 <onic_probe+0x64>
      64:	be 00 02 00 00       	mov    $0x200,%esi
      69:	4c 89 e7             	mov    %r12,%rdi
      6c:	e8 00 00 00 00       	callq  71 <onic_probe+0x71>
      71:	48 c7 c2 00 00 00 00 	mov    $0x0,%rdx
      78:	89 c6                	mov    %eax,%esi
      7a:	4c 89 e7             	mov    %r12,%rdi
      7d:	e8 00 00 00 00       	callq  82 <onic_probe+0x82>
      82:	85 c0                	test   %eax,%eax
      84:	41 89 c5             	mov    %eax,%r13d
      87:	0f 88 b6 02 00 00    	js     343 <onic_probe+0x343>
      8d:	31 d2                	xor    %edx,%edx
      8f:	b9 10 00 00 00       	mov    $0x10,%ecx
      94:	be 08 00 00 00       	mov    $0x8,%esi
      99:	4c 89 e7             	mov    %r12,%rdi
      9c:	e8 00 00 00 00       	callq  a1 <onic_probe+0xa1>
      a1:	31 d2                	xor    %edx,%edx
      a3:	b9 00 01 00 00       	mov    $0x100,%ecx
      a8:	be 08 00 00 00       	mov    $0x8,%esi
      ad:	4c 89 e7             	mov    %r12,%rdi
      b0:	e8 00 00 00 00       	callq  b5 <onic_probe+0xb5>
      b5:	4c 89 e7             	mov    %r12,%rdi
      b8:	e8 00 00 00 00       	callq  bd <onic_probe+0xbd>
      bd:	4c 89 e7             	mov    %r12,%rdi
      c0:	e8 00 00 00 00       	callq  c5 <onic_probe+0xc5>
      c5:	be 00 02 00 00       	mov    $0x200,%esi
      ca:	4c 89 e7             	mov    %r12,%rdi
      cd:	e8 00 00 00 00       	callq  d2 <onic_probe+0xd2>
      d2:	ba 40 00 00 00       	mov    $0x40,%edx
      d7:	be 40 00 00 00       	mov    $0x40,%esi
      dc:	bf 28 07 00 00       	mov    $0x728,%edi
      e1:	e8 00 00 00 00       	callq  e6 <onic_probe+0xe6>
      e6:	48 85 c0             	test   %rax,%rax
      e9:	48 89 c3             	mov    %rax,%rbx
      ec:	0f 84 3a 02 00 00    	je     32c <onic_probe+0x32c>
      f2:	48 89 c7             	mov    %rax,%rdi
      f5:	4c 89 b8 58 05 00 00 	mov    %r15,0x558(%rax)
      fc:	48 c7 80 f8 01 00 00 	movq   $0x0,0x1f8(%rax)
     103:	00 00 00 00 
     107:	e8 00 00 00 00       	callq  10c <onic_probe+0x10c>
     10c:	49 8b 44 24 10       	mov    0x10(%r12),%rax
     111:	45 8b 4c 24 38       	mov    0x38(%r12),%r9d
     116:	48 8d 7d c0          	lea    -0x40(%rbp),%rdi
     11a:	48 c7 c2 00 00 00 00 	mov    $0x0,%rdx
     121:	be 10 00 00 00       	mov    $0x10,%esi
     126:	0f b6 88 e0 00 00 00 	movzbl 0xe0(%rax),%ecx
     12d:	45 89 c8             	mov    %r9d,%r8d
     130:	41 83 e1 07          	and    $0x7,%r9d
     134:	41 c1 e8 03          	shr    $0x3,%r8d
     138:	41 83 e0 1f          	and    $0x1f,%r8d
     13c:	e8 00 00 00 00       	callq  141 <onic_probe+0x141>
     141:	48 8d 7d c0          	lea    -0x40(%rbp),%rdi
     145:	be 10 00 00 00       	mov    $0x10,%esi
     14a:	e8 00 00 00 00       	callq  14f <onic_probe+0x14f>
     14f:	48 83 f8 10          	cmp    $0x10,%rax
     153:	49 89 c5             	mov    %rax,%r13
     156:	0f 87 1a 02 00 00    	ja     376 <onic_probe+0x376>
     15c:	0f 84 08 02 00 00    	je     36a <onic_probe+0x36a>
     162:	48 8d 75 c0          	lea    -0x40(%rbp),%rsi
     166:	48 89 c2             	mov    %rax,%rdx
     169:	48 89 df             	mov    %rbx,%rdi
     16c:	4c 8d b3 c0 08 00 00 	lea    0x8c0(%rbx),%r14
     173:	e8 00 00 00 00       	callq  178 <onic_probe+0x178>
     178:	8b 05 00 00 00 00    	mov    0x0(%rip),%eax        # 17e <onic_probe+0x17e>
     17e:	42 c6 04 2b 00       	movb   $0x0,(%rbx,%r13,1)
     183:	be 03 00 00 00       	mov    $0x3,%esi
     188:	48 c7 45 b0 00 00 00 	movq   $0x0,-0x50(%rbp)
     18f:	00 
     190:	48 c7 45 b8 00 00 00 	movq   $0x0,-0x48(%rbp)
     197:	00 
     198:	89 45 b2             	mov    %eax,-0x4e(%rbp)
     19b:	0f b7 05 00 00 00 00 	movzwl 0x0(%rip),%eax        # 1a2 <onic_probe+0x1a2>
     1a2:	66 89 45 b6          	mov    %ax,-0x4a(%rbp)
     1a6:	48 8d 45 b0          	lea    -0x50(%rbp),%rax
     1aa:	48 8d 78 05          	lea    0x5(%rax),%rdi
     1ae:	e8 00 00 00 00       	callq  1b3 <onic_probe+0x1b3>
     1b3:	48 8d 75 b0          	lea    -0x50(%rbp),%rsi
     1b7:	48 89 df             	mov    %rbx,%rdi
     1ba:	e8 00 00 00 00       	callq  1bf <onic_probe+0x1bf>
     1bf:	48 8d bb c8 08 00 00 	lea    0x8c8(%rbx),%rdi
     1c6:	4c 89 f1             	mov    %r14,%rcx
     1c9:	31 c0                	xor    %eax,%eax
     1cb:	48 c7 83 c0 08 00 00 	movq   $0x0,0x8c0(%rbx)
     1d2:	00 00 00 00 
     1d6:	48 c7 83 e0 0f 00 00 	movq   $0x0,0xfe0(%rbx)
     1dd:	00 00 00 00 
     1e1:	48 83 e7 f8          	and    $0xfffffffffffffff8,%rdi
     1e5:	48 29 f9             	sub    %rdi,%rcx
     1e8:	81 c1 28 07 00 00    	add    $0x728,%ecx
     1ee:	c1 e9 03             	shr    $0x3,%ecx
     1f1:	f3 48 ab             	rep stos %rax,%es:(%rdi)
     1f4:	8b 05 00 00 00 00    	mov    0x0(%rip),%eax        # 1fa <onic_probe+0x1fa>
     1fa:	89 83 e8 08 00 00    	mov    %eax,0x8e8(%rbx)
     200:	41 f6 44 24 38 07    	testb  $0x7,0x38(%r12)
     206:	0f 84 04 01 00 00    	je     310 <onic_probe+0x310>
     20c:	4c 89 a3 d0 08 00 00 	mov    %r12,0x8d0(%rbx)
     213:	48 89 9b f8 08 00 00 	mov    %rbx,0x8f8(%rbx)
     21a:	4c 89 f7             	mov    %r14,%rdi
     21d:	48 c7 83 c0 09 00 00 	movq   $0x0,0x9c0(%rbx)
     224:	00 00 00 00 
     228:	e8 00 00 00 00       	callq  22d <onic_probe+0x22d>
     22d:	85 c0                	test   %eax,%eax
     22f:	41 89 c5             	mov    %eax,%r13d
     232:	0f 88 c5 00 00 00    	js     2fd <onic_probe+0x2fd>
     238:	4c 89 f7             	mov    %r14,%rdi
     23b:	e8 00 00 00 00       	callq  240 <onic_probe+0x240>
     240:	85 c0                	test   %eax,%eax
     242:	41 89 c5             	mov    %eax,%r13d
     245:	0f 88 9f 00 00 00    	js     2ea <onic_probe+0x2ea>
     24b:	4c 89 f7             	mov    %r14,%rdi
     24e:	e8 00 00 00 00       	callq  253 <onic_probe+0x253>
     253:	85 c0                	test   %eax,%eax
     255:	41 89 c5             	mov    %eax,%r13d
     258:	78 3f                	js     299 <onic_probe+0x299>
     25a:	45 31 ed             	xor    %r13d,%r13d
     25d:	48 8b 55 d0          	mov    -0x30(%rbp),%rdx
     261:	65 48 33 14 25 28 00 	xor    %gs:0x28,%rdx
     268:	00 00 
     26a:	44 89 e8             	mov    %r13d,%eax
     26d:	75 25                	jne    294 <onic_probe+0x294>
     26f:	48 83 c4 28          	add    $0x28,%rsp
     273:	5b                   	pop    %rbx
     274:	41 5c                	pop    %r12
     276:	41 5d                	pop    %r13
     278:	41 5e                	pop    %r14
     27a:	41 5f                	pop    %r15
     27c:	5d                   	pop    %rbp
     27d:	c3                   	retq   
     27e:	89 c2                	mov    %eax,%edx
     280:	48 c7 c6 00 00 00 00 	mov    $0x0,%rsi
     287:	4c 89 ff             	mov    %r15,%rdi
     28a:	41 89 c5             	mov    %eax,%r13d
     28d:	e8 00 00 00 00       	callq  292 <onic_probe+0x292>
     292:	eb c9                	jmp    25d <onic_probe+0x25d>
     294:	e8 00 00 00 00       	callq  299 <onic_probe+0x299>
     299:	4c 89 ff             	mov    %r15,%rdi
     29c:	89 c2                	mov    %eax,%edx
     29e:	48 c7 c6 00 00 00 00 	mov    $0x0,%rsi
     2a5:	e8 00 00 00 00       	callq  2aa <onic_probe+0x2aa>
     2aa:	4c 89 f7             	mov    %r14,%rdi
     2ad:	e8 00 00 00 00       	callq  2b2 <onic_probe+0x2b2>
     2b2:	4c 89 f7             	mov    %r14,%rdi
     2b5:	e8 00 00 00 00       	callq  2ba <onic_probe+0x2ba>
     2ba:	48 8b bb f8 08 00 00 	mov    0x8f8(%rbx),%rdi
     2c1:	e8 00 00 00 00       	callq  2c6 <onic_probe+0x2c6>
     2c6:	be 00 02 00 00       	mov    $0x200,%esi
     2cb:	4c 89 e7             	mov    %r12,%rdi
     2ce:	e8 00 00 00 00       	callq  2d3 <onic_probe+0x2d3>
     2d3:	4c 89 e7             	mov    %r12,%rdi
     2d6:	89 c6                	mov    %eax,%esi
     2d8:	e8 00 00 00 00       	callq  2dd <onic_probe+0x2dd>
     2dd:	4c 89 e7             	mov    %r12,%rdi
     2e0:	e8 00 00 00 00       	callq  2e5 <onic_probe+0x2e5>
     2e5:	e9 73 ff ff ff       	jmpq   25d <onic_probe+0x25d>
     2ea:	89 c2                	mov    %eax,%edx
     2ec:	48 c7 c6 00 00 00 00 	mov    $0x0,%rsi
     2f3:	4c 89 ff             	mov    %r15,%rdi
     2f6:	e8 00 00 00 00       	callq  2fb <onic_probe+0x2fb>
     2fb:	eb b5                	jmp    2b2 <onic_probe+0x2b2>
     2fd:	89 c2                	mov    %eax,%edx
     2ff:	48 c7 c6 00 00 00 00 	mov    $0x0,%rsi
     306:	4c 89 ff             	mov    %r15,%rdi
     309:	e8 00 00 00 00       	callq  30e <onic_probe+0x30e>
     30e:	eb aa                	jmp    2ba <onic_probe+0x2ba>
     310:	48 c7 c6 00 00 00 00 	mov    $0x0,%rsi
     317:	4c 89 ff             	mov    %r15,%rdi
     31a:	e8 00 00 00 00       	callq  31f <onic_probe+0x31f>
     31f:	f0 80 8b e0 08 00 00 	lock orb $0x1,0x8e0(%rbx)
     326:	01 
     327:	e9 e0 fe ff ff       	jmpq   20c <onic_probe+0x20c>
     32c:	48 c7 c6 00 00 00 00 	mov    $0x0,%rsi
     333:	4c 89 ff             	mov    %r15,%rdi
     336:	41 bd f4 ff ff ff    	mov    $0xfffffff4,%r13d
     33c:	e8 00 00 00 00       	callq  341 <onic_probe+0x341>
     341:	eb 83                	jmp    2c6 <onic_probe+0x2c6>
     343:	89 c2                	mov    %eax,%edx
     345:	48 c7 c6 00 00 00 00 	mov    $0x0,%rsi
     34c:	4c 89 ff             	mov    %r15,%rdi
     34f:	e8 00 00 00 00       	callq  354 <onic_probe+0x354>
     354:	eb 87                	jmp    2dd <onic_probe+0x2dd>
     356:	48 c7 c6 00 00 00 00 	mov    $0x0,%rsi
     35d:	4c 89 ff             	mov    %r15,%rdi
     360:	e8 00 00 00 00       	callq  365 <onic_probe+0x365>
     365:	e9 73 ff ff ff       	jmpq   2dd <onic_probe+0x2dd>
     36a:	48 c7 c7 00 00 00 00 	mov    $0x0,%rdi
     371:	e8 00 00 00 00       	callq  376 <onic_probe+0x376>
     376:	48 c7 c7 00 00 00 00 	mov    $0x0,%rdi
     37d:	e8 00 00 00 00       	callq  382 <onic_probe+0x382>
     382:	0f 1f 40 00          	nopl   0x0(%rax)
     386:	66 2e 0f 1f 84 00 00 	nopw   %cs:0x0(%rax,%rax,1)
     38d:	00 00 00 

0000000000000390 <onic_remove>:
     390:	e8 00 00 00 00       	callq  395 <onic_remove+0x5>
     395:	55                   	push   %rbp
     396:	48 89 e5             	mov    %rsp,%rbp
     399:	41 54                	push   %r12
     39b:	53                   	push   %rbx
     39c:	4c 8b a7 28 01 00 00 	mov    0x128(%rdi),%r12
     3a3:	48 89 fb             	mov    %rdi,%rbx
     3a6:	4c 89 e7             	mov    %r12,%rdi
     3a9:	e8 00 00 00 00       	callq  3ae <onic_remove+0x1e>
     3ae:	4c 89 e7             	mov    %r12,%rdi
     3b1:	e8 00 00 00 00       	callq  3b6 <onic_remove+0x26>
     3b6:	49 8b 7c 24 38       	mov    0x38(%r12),%rdi
     3bb:	e8 00 00 00 00       	callq  3c0 <onic_remove+0x30>
     3c0:	48 89 df             	mov    %rbx,%rdi
     3c3:	be 00 02 00 00       	mov    $0x200,%esi
     3c8:	e8 00 00 00 00       	callq  3cd <onic_remove+0x3d>
     3cd:	48 89 df             	mov    %rbx,%rdi
     3d0:	89 c6                	mov    %eax,%esi
     3d2:	e8 00 00 00 00       	callq  3d7 <onic_remove+0x47>
     3d7:	48 89 df             	mov    %rbx,%rdi
     3da:	e8 00 00 00 00       	callq  3df <onic_remove+0x4f>
     3df:	5b                   	pop    %rbx
     3e0:	41 5c                	pop    %r12
     3e2:	5d                   	pop    %rbp
     3e3:	c3                   	retq   
     3e4:	66 2e 0f 1f 84 00 00 	nopw   %cs:0x0(%rax,%rax,1)
     3eb:	00 00 00 
     3ee:	66 90                	xchg   %ax,%ax

00000000000003f0 <onic_get_ethtool_stats>:
     3f0:	e8 00 00 00 00       	callq  3f5 <onic_get_ethtool_stats+0x5>
     3f5:	55                   	push   %rbp
     3f6:	48 89 e5             	mov    %rsp,%rbp
     3f9:	5d                   	pop    %rbp
     3fa:	c3                   	retq   
     3fb:	0f 1f 44 00 00       	nopl   0x0(%rax,%rax,1)

0000000000000400 <onic_get_drvinfo>:
     400:	e8 00 00 00 00       	callq  405 <onic_get_drvinfo+0x5>
     405:	55                   	push   %rbp
     406:	48 89 e5             	mov    %rsp,%rbp
     409:	41 54                	push   %r12
     40b:	53                   	push   %rbx
     40c:	48 89 f3             	mov    %rsi,%rbx
     40f:	48 c7 c6 00 00 00 00 	mov    $0x0,%rsi
     416:	49 89 fc             	mov    %rdi,%r12
     419:	e8 00 00 00 00       	callq  41e <onic_get_drvinfo+0x1e>
     41e:	48 8d 7b 04          	lea    0x4(%rbx),%rdi
     422:	ba 20 00 00 00       	mov    $0x20,%edx
     427:	48 c7 c6 00 00 00 00 	mov    $0x0,%rsi
     42e:	e8 00 00 00 00       	callq  433 <onic_get_drvinfo+0x33>
     433:	48 8d 7b 24          	lea    0x24(%rbx),%rdi
     437:	48 c7 c6 00 00 00 00 	mov    $0x0,%rsi
     43e:	ba 20 00 00 00       	mov    $0x20,%edx
     443:	e8 00 00 00 00       	callq  448 <onic_get_drvinfo+0x48>
     448:	49 8b 84 24 d0 08 00 	mov    0x8d0(%r12),%rax
     44f:	00 
     450:	48 8b b0 00 01 00 00 	mov    0x100(%rax),%rsi
     457:	48 85 f6             	test   %rsi,%rsi
     45a:	74 13                	je     46f <onic_get_drvinfo+0x6f>
     45c:	48 8d 7b 64          	lea    0x64(%rbx),%rdi
     460:	ba 20 00 00 00       	mov    $0x20,%edx
     465:	e8 00 00 00 00       	callq  46a <onic_get_drvinfo+0x6a>
     46a:	5b                   	pop    %rbx
     46b:	41 5c                	pop    %r12
     46d:	5d                   	pop    %rbp
     46e:	c3                   	retq   
     46f:	48 8b b0 b0 00 00 00 	mov    0xb0(%rax),%rsi
     476:	eb e4                	jmp    45c <onic_get_drvinfo+0x5c>
     478:	0f 1f 84 00 00 00 00 	nopl   0x0(%rax,%rax,1)
     47f:	00 

0000000000000480 <onic_set_ethtool_ops>:
     480:	e8 00 00 00 00       	callq  485 <onic_set_ethtool_ops+0x5>
     485:	55                   	push   %rbp
     486:	48 c7 c6 00 00 00 00 	mov    $0x0,%rsi
     48d:	48 89 e5             	mov    %rsp,%rbp
     490:	53                   	push   %rbx
     491:	48 89 fb             	mov    %rdi,%rbx
     494:	e8 00 00 00 00       	callq  499 <onic_set_ethtool_ops+0x19>
     499:	48 c7 83 00 02 00 00 	movq   $0x0,0x200(%rbx)
     4a0:	00 00 00 00 
     4a4:	5b                   	pop    %rbx
     4a5:	5d                   	pop    %rbp
     4a6:	c3                   	retq   
     4a7:	66 0f 1f 84 00 00 00 	nopw   0x0(%rax,%rax,1)
     4ae:	00 00 

00000000000004b0 <get_trailing_zeros>:
     4b0:	55                   	push   %rbp
     4b1:	48 85 ff             	test   %rdi,%rdi
     4b4:	48 89 e5             	mov    %rsp,%rbp
     4b7:	74 34                	je     4ed <get_trailing_zeros+0x3d>
     4b9:	66 85 ff             	test   %di,%di
     4bc:	74 3d                	je     4fb <get_trailing_zeros+0x4b>
     4be:	40 0f b6 d7          	movzbl %dil,%edx
     4c2:	b8 01 00 00 00       	mov    $0x1,%eax
     4c7:	48 85 d2             	test   %rdx,%rdx
     4ca:	74 26                	je     4f2 <get_trailing_zeros+0x42>
     4cc:	40 f6 c7 0f          	test   $0xf,%dil
     4d0:	75 07                	jne    4d9 <get_trailing_zeros+0x29>
     4d2:	83 c0 04             	add    $0x4,%eax
     4d5:	48 c1 ef 04          	shr    $0x4,%rdi
     4d9:	40 f6 c7 03          	test   $0x3,%dil
     4dd:	75 07                	jne    4e6 <get_trailing_zeros+0x36>
     4df:	83 c0 02             	add    $0x2,%eax
     4e2:	48 c1 ef 02          	shr    $0x2,%rdi
     4e6:	83 e7 01             	and    $0x1,%edi
     4e9:	29 f8                	sub    %edi,%eax
     4eb:	5d                   	pop    %rbp
     4ec:	c3                   	retq   
     4ed:	b8 31 00 00 00       	mov    $0x31,%eax
     4f2:	83 c0 08             	add    $0x8,%eax
     4f5:	48 c1 ef 08          	shr    $0x8,%rdi
     4f9:	eb d1                	jmp    4cc <get_trailing_zeros+0x1c>
     4fb:	48 c1 ef 10          	shr    $0x10,%rdi
     4ff:	b8 11 00 00 00       	mov    $0x11,%eax
     504:	40 0f b6 d7          	movzbl %dil,%edx
     508:	eb bd                	jmp    4c7 <get_trailing_zeros+0x17>
     50a:	66 0f 1f 44 00 00    	nopw   0x0(%rax,%rax,1)

0000000000000510 <onic_ring_count>:
     510:	e8 00 00 00 00       	callq  515 <onic_ring_count+0x5>
     515:	55                   	push   %rbp
     516:	31 c0                	xor    %eax,%eax
     518:	40 80 ff 0f          	cmp    $0xf,%dil
     51c:	48 89 e5             	mov    %rsp,%rbp
     51f:	77 0c                	ja     52d <onic_ring_count+0x1d>
     521:	40 0f b6 ff          	movzbl %dil,%edi
     525:	0f b7 84 3f 00 00 00 	movzwl 0x0(%rdi,%rdi,1),%eax
     52c:	00 
     52d:	5d                   	pop    %rbp
     52e:	c3                   	retq   
     52f:	90                   	nop

0000000000000530 <onic_init_hardware>:
     530:	e8 00 00 00 00       	callq  535 <onic_init_hardware+0x5>
     535:	55                   	push   %rbp
     536:	31 d2                	xor    %edx,%edx
     538:	b9 00 00 01 00       	mov    $0x10000,%ecx
     53d:	be 02 00 00 00       	mov    $0x2,%esi
     542:	48 89 e5             	mov    %rsp,%rbp
     545:	41 57                	push   %r15
     547:	41 56                	push   %r14
     549:	41 55                	push   %r13
     54b:	41 54                	push   %r12
     54d:	49 89 ff             	mov    %rdi,%r15
     550:	53                   	push   %rbx
     551:	48 83 ec 28          	sub    $0x28,%rsp
     555:	48 8b 5f 10          	mov    0x10(%rdi),%rbx
     559:	65 48 8b 04 25 28 00 	mov    %gs:0x28,%rax
     560:	00 00 
     562:	48 89 45 d0          	mov    %rax,-0x30(%rbp)
     566:	31 c0                	xor    %eax,%eax
     568:	48 8b 47 20          	mov    0x20(%rdi),%rax
     56c:	48 89 45 c0          	mov    %rax,-0x40(%rbp)
     570:	8b 47 28             	mov    0x28(%rdi),%eax
     573:	89 87 08 07 00 00    	mov    %eax,0x708(%rdi)
     579:	48 89 df             	mov    %rbx,%rdi
     57c:	e8 00 00 00 00       	callq  581 <onic_init_hardware+0x51>
     581:	48 85 c0             	test   %rax,%rax
     584:	49 89 87 20 07 00 00 	mov    %rax,0x720(%r15)
     58b:	0f 84 0d 01 00 00    	je     69e <onic_init_hardware+0x16e>
     591:	31 f6                	xor    %esi,%esi
     593:	48 89 df             	mov    %rbx,%rdi
     596:	e8 00 00 00 00       	callq  59b <onic_init_hardware+0x6b>
     59b:	48 85 c0             	test   %rax,%rax
     59e:	49 89 c6             	mov    %rax,%r14
     5a1:	0f 84 ff 00 00 00    	je     6a6 <onic_init_hardware+0x176>
     5a7:	0f b7 7b 38          	movzwl 0x38(%rbx),%edi
     5ab:	41 0f b7 4f 2e       	movzwl 0x2e(%r15),%ecx
     5b0:	45 0f b7 67 30       	movzwl 0x30(%r15),%r12d
     5b5:	48 c7 45 c8 00 00 00 	movq   $0x0,-0x38(%rbp)
     5bc:	00 
     5bd:	83 e7 07             	and    $0x7,%edi
     5c0:	66 89 7d b8          	mov    %di,-0x48(%rbp)
     5c4:	c1 e7 06             	shl    $0x6,%edi
     5c7:	66 44 39 e1          	cmp    %r12w,%cx
     5cb:	44 0f 47 e1          	cmova  %ecx,%r12d
     5cf:	66 89 7d b6          	mov    %di,-0x4a(%rbp)
     5d3:	66 89 7d c8          	mov    %di,-0x38(%rbp)
     5d7:	44 89 e0             	mov    %r12d,%eax
     5da:	4c 89 f7             	mov    %r14,%rdi
     5dd:	66 25 ff 0f          	and    $0xfff,%ax
     5e1:	66 89 45 cc          	mov    %ax,-0x34(%rbp)
     5e5:	e8 00 00 00 00       	callq  5ea <onic_init_hardware+0xba>
     5ea:	85 c0                	test   %eax,%eax
     5ec:	41 89 c5             	mov    %eax,%r13d
     5ef:	78 17                	js     608 <onic_init_hardware+0xd8>
     5f1:	48 8d 75 c8          	lea    -0x38(%rbp),%rsi
     5f5:	4c 89 f7             	mov    %r14,%rdi
     5f8:	e8 00 00 00 00       	callq  5fd <onic_init_hardware+0xcd>
     5fd:	85 c0                	test   %eax,%eax
     5ff:	41 89 c5             	mov    %eax,%r13d
     602:	0f 89 ab 00 00 00    	jns    6b3 <onic_init_hardware+0x183>
     608:	4d 8b 67 10          	mov    0x10(%r15),%r12
     60c:	49 8b 9f 10 07 00 00 	mov    0x710(%r15),%rbx
     613:	31 ff                	xor    %edi,%edi
     615:	41 8b 74 24 38       	mov    0x38(%r12),%esi
     61a:	83 e6 07             	and    $0x7,%esi
     61d:	83 c6 01             	add    $0x1,%esi
     620:	c1 e6 0c             	shl    $0xc,%esi
     623:	48 63 f6             	movslq %esi,%rsi
     626:	49 03 b7 20 07 00 00 	add    0x720(%r15),%rsi
     62d:	e8 00 00 00 00       	callq  632 <onic_init_hardware+0x102>
     632:	48 89 df             	mov    %rbx,%rdi
     635:	e8 00 00 00 00       	callq  63a <onic_init_hardware+0x10a>
     63a:	48 89 df             	mov    %rbx,%rdi
     63d:	e8 00 00 00 00       	callq  642 <onic_init_hardware+0x112>
     642:	49 8b b7 20 07 00 00 	mov    0x720(%r15),%rsi
     649:	4c 89 e7             	mov    %r12,%rdi
     64c:	e8 00 00 00 00       	callq  651 <onic_init_hardware+0x121>
     651:	49 c7 87 08 07 00 00 	movq   $0x0,0x708(%r15)
     658:	00 00 00 00 
     65c:	49 c7 87 10 07 00 00 	movq   $0x0,0x710(%r15)
     663:	00 00 00 00 
     667:	49 c7 87 18 07 00 00 	movq   $0x0,0x718(%r15)
     66e:	00 00 00 00 
     672:	49 c7 87 20 07 00 00 	movq   $0x0,0x720(%r15)
     679:	00 00 00 00 
     67d:	48 8b 4d d0          	mov    -0x30(%rbp),%rcx
     681:	65 48 33 0c 25 28 00 	xor    %gs:0x28,%rcx
     688:	00 00 
     68a:	44 89 e8             	mov    %r13d,%eax
     68d:	75 1f                	jne    6ae <onic_init_hardware+0x17e>
     68f:	48 83 c4 28          	add    $0x28,%rsp
     693:	5b                   	pop    %rbx
     694:	41 5c                	pop    %r12
     696:	41 5d                	pop    %r13
     698:	41 5e                	pop    %r14
     69a:	41 5f                	pop    %r15
     69c:	5d                   	pop    %rbp
     69d:	c3                   	retq   
     69e:	41 bd ea ff ff ff    	mov    $0xffffffea,%r13d
     6a4:	eb d7                	jmp    67d <onic_init_hardware+0x14d>
     6a6:	41 bd f4 ff ff ff    	mov    $0xfffffff4,%r13d
     6ac:	eb cf                	jmp    67d <onic_init_hardware+0x14d>
     6ae:	e8 00 00 00 00       	callq  6b3 <onic_init_hardware+0x183>
     6b3:	bf 00 00 ff ff       	mov    $0xffff0000,%edi
     6b8:	e8 f3 fd ff ff       	callq  4b0 <get_trailing_zeros>
     6bd:	bf ff ff 00 00       	mov    $0xffff,%edi
     6c2:	88 45 b4             	mov    %al,-0x4c(%rbp)
     6c5:	e8 e6 fd ff ff       	callq  4b0 <get_trailing_zeros>
     6ca:	44 0f b7 6d b8       	movzwl -0x48(%rbp),%r13d
     6cf:	89 c2                	mov    %eax,%edx
     6d1:	88 45 b5             	mov    %al,-0x4b(%rbp)
     6d4:	0f b7 45 b6          	movzwl -0x4a(%rbp),%eax
     6d8:	0f b6 4d b4          	movzbl -0x4c(%rbp),%ecx
     6dc:	41 83 c5 01          	add    $0x1,%r13d
     6e0:	41 c1 e5 0c          	shl    $0xc,%r13d
     6e4:	48 89 c7             	mov    %rax,%rdi
     6e7:	41 0f b7 c4          	movzwl %r12w,%eax
     6eb:	49 63 f5             	movslq %r13d,%rsi
     6ee:	48 d3 e7             	shl    %cl,%rdi
     6f1:	49 03 b7 20 07 00 00 	add    0x720(%r15),%rsi
     6f8:	89 d1                	mov    %edx,%ecx
     6fa:	66 31 ff             	xor    %di,%di
     6fd:	48 d3 e0             	shl    %cl,%rax
     700:	0f b7 c0             	movzwl %ax,%eax
     703:	09 c7                	or     %eax,%edi
     705:	e8 00 00 00 00       	callq  70a <onic_init_hardware+0x1da>
     70a:	41 8d 85 00 04 00 00 	lea    0x400(%r13),%eax
     711:	45 31 ed             	xor    %r13d,%r13d
     714:	48 98                	cltq   
     716:	48 89 45 b8          	mov    %rax,-0x48(%rbp)
     71a:	48 8b 45 b8          	mov    -0x48(%rbp),%rax
     71e:	4a 8d 34 a8          	lea    (%rax,%r13,4),%rsi
     722:	44 89 e8             	mov    %r13d,%eax
     725:	49 03 b7 20 07 00 00 	add    0x720(%r15),%rsi
     72c:	99                   	cltd   
     72d:	49 83 c5 01          	add    $0x1,%r13
     731:	41 f7 fc             	idiv   %r12d
     734:	89 d7                	mov    %edx,%edi
     736:	e8 00 00 00 00       	callq  73b <onic_init_hardware+0x20b>
     73b:	49 81 fd 80 00 00 00 	cmp    $0x80,%r13
     742:	75 d6                	jne    71a <onic_init_hardware+0x1ea>
     744:	f6 45 c0 01          	testb  $0x1,-0x40(%rbp)
     748:	75 22                	jne    76c <onic_init_hardware+0x23c>
     74a:	48 8d bb b0 00 00 00 	lea    0xb0(%rbx),%rdi
     751:	4d 89 b7 10 07 00 00 	mov    %r14,0x710(%r15)
     758:	48 c7 c6 00 00 00 00 	mov    $0x0,%rsi
     75f:	45 31 ed             	xor    %r13d,%r13d
     762:	e8 00 00 00 00       	callq  767 <onic_init_hardware+0x237>
     767:	e9 11 ff ff ff       	jmpq   67d <onic_init_hardware+0x14d>
     76c:	49 c7 c5 00 00 00 00 	mov    $0x0,%r13
     773:	41 bc 04 02 00 00    	mov    $0x204,%r12d
     779:	41 0f b7 7d 00       	movzwl 0x0(%r13),%edi
     77e:	49 8b 76 10          	mov    0x10(%r14),%rsi
     782:	49 83 c5 02          	add    $0x2,%r13
     786:	4c 01 e6             	add    %r12,%rsi
     789:	49 83 c4 04          	add    $0x4,%r12
     78d:	e8 00 00 00 00       	callq  792 <onic_init_hardware+0x262>
     792:	49 81 fc 44 02 00 00 	cmp    $0x244,%r12
     799:	75 de                	jne    779 <onic_init_hardware+0x249>
     79b:	49 c7 c5 00 00 00 00 	mov    $0x0,%r13
     7a2:	41 bc b0 0a 00 00    	mov    $0xab0,%r12d
     7a8:	41 0f b7 7d 00       	movzwl 0x0(%r13),%edi
     7ad:	49 8b 76 10          	mov    0x10(%r14),%rsi
     7b1:	49 83 c5 02          	add    $0x2,%r13
     7b5:	4c 01 e6             	add    %r12,%rsi
     7b8:	49 83 c4 04          	add    $0x4,%r12
     7bc:	e8 00 00 00 00       	callq  7c1 <onic_init_hardware+0x291>
     7c1:	49 81 fc f0 0a 00 00 	cmp    $0xaf0,%r12
     7c8:	75 de                	jne    7a8 <onic_init_hardware+0x278>
     7ca:	49 8b 46 10          	mov    0x10(%r14),%rax
     7ce:	bf 19 00 00 00       	mov    $0x19,%edi
     7d3:	49 c7 c5 00 00 00 00 	mov    $0x0,%r13
     7da:	41 bc 00 0a 00 00    	mov    $0xa00,%r12d
     7e0:	48 8d b0 0c 0b 00 00 	lea    0xb0c(%rax),%rsi
     7e7:	e8 00 00 00 00       	callq  7ec <onic_init_hardware+0x2bc>
     7ec:	41 0f b7 7d 00       	movzwl 0x0(%r13),%edi
     7f1:	49 8b 76 10          	mov    0x10(%r14),%rsi
     7f5:	49 83 c5 02          	add    $0x2,%r13
     7f9:	4c 01 e6             	add    %r12,%rsi
     7fc:	49 83 c4 04          	add    $0x4,%r12
     800:	e8 00 00 00 00       	callq  805 <onic_init_hardware+0x2d5>
     805:	49 81 fc 40 0a 00 00 	cmp    $0xa40,%r12
     80c:	75 de                	jne    7ec <onic_init_hardware+0x2bc>
     80e:	49 c7 c5 00 00 00 00 	mov    $0x0,%r13
     815:	41 0f b7 7d 00       	movzwl 0x0(%r13),%edi
     81a:	49 8b 76 10          	mov    0x10(%r14),%rsi
     81e:	49 83 c5 02          	add    $0x2,%r13
     822:	4c 01 e6             	add    %r12,%rsi
     825:	49 83 c4 04          	add    $0x4,%r12
     829:	e8 00 00 00 00       	callq  82e <onic_init_hardware+0x2fe>
     82e:	49 81 fc 80 0a 00 00 	cmp    $0xa80,%r12
     835:	75 de                	jne    815 <onic_init_hardware+0x2e5>
     837:	bf 38 00 00 00       	mov    $0x38,%edi
     83c:	e8 6f fc ff ff       	callq  4b0 <get_trailing_zeros>
     841:	49 8b 4e 10          	mov    0x10(%r14),%rcx
     845:	ba 06 00 00 00       	mov    $0x6,%edx
     84a:	48 8d b1 50 02 00 00 	lea    0x250(%rcx),%rsi
     851:	89 c1                	mov    %eax,%ecx
     853:	48 d3 e2             	shl    %cl,%rdx
     856:	89 d7                	mov    %edx,%edi
     858:	83 e7 38             	and    $0x38,%edi
     85b:	e8 00 00 00 00       	callq  860 <onic_init_hardware+0x330>
     860:	49 8b 46 10          	mov    0x10(%r14),%rax
     864:	48 8d b8 e0 0b 00 00 	lea    0xbe0(%rax),%rdi
     86b:	e8 00 00 00 00       	callq  870 <onic_init_hardware+0x340>
     870:	bf ff 01 00 00       	mov    $0x1ff,%edi
     875:	41 89 c5             	mov    %eax,%r13d
     878:	e8 33 fc ff ff       	callq  4b0 <get_trailing_zeros>
     87d:	bf 00 fe 03 00       	mov    $0x3fe00,%edi
     882:	41 89 c4             	mov    %eax,%r12d
     885:	41 d1 ed             	shr    %r13d
     888:	e8 23 fc ff ff       	callq  4b0 <get_trailing_zeros>
     88d:	44 89 e1             	mov    %r12d,%ecx
     890:	ba 00 01 00 00       	mov    $0x100,%edx
     895:	bf 00 00 fc 01       	mov    $0x1fc0000,%edi
     89a:	48 d3 e2             	shl    %cl,%rdx
     89d:	89 c1                	mov    %eax,%ecx
     89f:	49 89 d4             	mov    %rdx,%r12
     8a2:	ba 08 00 00 00       	mov    $0x8,%edx
     8a7:	48 d3 e2             	shl    %cl,%rdx
     8aa:	41 81 e4 ff 01 00 00 	and    $0x1ff,%r12d
     8b1:	48 89 d0             	mov    %rdx,%rax
     8b4:	25 00 fe 03 00       	and    $0x3fe00,%eax
     8b9:	41 09 c4             	or     %eax,%r12d
     8bc:	e8 ef fb ff ff       	callq  4b0 <get_trailing_zeros>
     8c1:	44 89 ea             	mov    %r13d,%edx
     8c4:	89 c1                	mov    %eax,%ecx
     8c6:	bf 00 00 00 fe       	mov    $0xfe000000,%edi
     8cb:	48 d3 e2             	shl    %cl,%rdx
     8ce:	48 89 d0             	mov    %rdx,%rax
     8d1:	25 00 00 fc 01       	and    $0x1fc0000,%eax
     8d6:	41 09 c4             	or     %eax,%r12d
     8d9:	e8 d2 fb ff ff       	callq  4b0 <get_trailing_zeros>
     8de:	49 8b 4e 10          	mov    0x10(%r14),%rcx
     8e2:	41 8d 55 fe          	lea    -0x2(%r13),%edx
     8e6:	48 8d b1 08 0b 00 00 	lea    0xb08(%rcx),%rsi
     8ed:	89 c1                	mov    %eax,%ecx
     8ef:	48 d3 e2             	shl    %cl,%rdx
     8f2:	48 89 d7             	mov    %rdx,%rdi
     8f5:	81 e7 00 00 00 fe    	and    $0xfe000000,%edi
     8fb:	44 09 e7             	or     %r12d,%edi
     8fe:	e8 00 00 00 00       	callq  903 <onic_init_hardware+0x3d3>
     903:	49 8b 46 10          	mov    0x10(%r14),%rax
     907:	48 8d b8 e4 0b 00 00 	lea    0xbe4(%rax),%rdi
     90e:	e8 00 00 00 00       	callq  913 <onic_init_hardware+0x3e3>
     913:	bf fc 3f 00 00       	mov    $0x3ffc,%edi
     918:	41 89 c4             	mov    %eax,%r12d
     91b:	e8 90 fb ff ff       	callq  4b0 <get_trailing_zeros>
     920:	bf 00 c0 ff 03       	mov    $0x3ffc000,%edi
     925:	41 89 c5             	mov    %eax,%r13d
     928:	e8 83 fb ff ff       	callq  4b0 <get_trailing_zeros>
     92d:	44 89 e9             	mov    %r13d,%ecx
     930:	ba 05 00 00 00       	mov    $0x5,%edx
     935:	bf 00 00 00 fc       	mov    $0xfc000000,%edi
     93a:	48 d3 e2             	shl    %cl,%rdx
     93d:	89 c1                	mov    %eax,%ecx
     93f:	49 89 d5             	mov    %rdx,%r13
     942:	ba 19 00 00 00       	mov    $0x19,%edx
     947:	48 d3 e2             	shl    %cl,%rdx
     94a:	41 81 e5 fc 3f 00 00 	and    $0x3ffc,%r13d
     951:	48 89 d0             	mov    %rdx,%rax
     954:	25 00 c0 ff 03       	and    $0x3ffc000,%eax
     959:	41 09 c5             	or     %eax,%r13d
     95c:	e8 4f fb ff ff       	callq  4b0 <get_trailing_zeros>
     961:	49 8b 4e 10          	mov    0x10(%r14),%rcx
     965:	4c 89 e7             	mov    %r12,%rdi
     968:	48 8d b1 50 0b 00 00 	lea    0xb50(%rcx),%rsi
     96f:	89 c1                	mov    %eax,%ecx
     971:	48 d3 e7             	shl    %cl,%rdi
     974:	81 e7 00 00 00 fc    	and    $0xfc000000,%edi
     97a:	44 09 ef             	or     %r13d,%edi
     97d:	e8 00 00 00 00       	callq  982 <onic_init_hardware+0x452>
     982:	bf 00 00 01 00       	mov    $0x10000,%edi
     987:	e8 24 fb ff ff       	callq  4b0 <get_trailing_zeros>
     98c:	bf 00 00 fe 03       	mov    $0x3fe0000,%edi
     991:	41 89 c4             	mov    %eax,%r12d
     994:	e8 17 fb ff ff       	callq  4b0 <get_trailing_zeros>
     999:	49 8b 4e 10          	mov    0x10(%r14),%rcx
     99d:	ba 01 00 00 00       	mov    $0x1,%edx
     9a2:	48 8d b1 24 0e 00 00 	lea    0xe24(%rcx),%rsi
     9a9:	44 89 e1             	mov    %r12d,%ecx
     9ac:	48 d3 e2             	shl    %cl,%rdx
     9af:	89 c1                	mov    %eax,%ecx
     9b1:	48 89 d7             	mov    %rdx,%rdi
     9b4:	ba 60 00 00 00       	mov    $0x60,%edx
     9b9:	48 d3 e2             	shl    %cl,%rdx
     9bc:	0f b6 4d b5          	movzbl -0x4b(%rbp),%ecx
     9c0:	81 e7 00 00 01 00    	and    $0x10000,%edi
     9c6:	48 89 d0             	mov    %rdx,%rax
     9c9:	25 00 00 fe 03       	and    $0x3fe0000,%eax
     9ce:	09 c7                	or     %eax,%edi
     9d0:	b8 00 40 00 00       	mov    $0x4000,%eax
     9d5:	48 d3 e0             	shl    %cl,%rax
     9d8:	0f b7 c0             	movzwl %ax,%eax
     9db:	09 c7                	or     %eax,%edi
     9dd:	e8 00 00 00 00       	callq  9e2 <onic_init_hardware+0x4b2>
     9e2:	e9 63 fd ff ff       	jmpq   74a <onic_init_hardware+0x21a>
     9e7:	66 0f 1f 84 00 00 00 	nopw   0x0(%rax,%rax,1)
     9ee:	00 00 

00000000000009f0 <onic_clear_hardware>:
     9f0:	e8 00 00 00 00       	callq  9f5 <onic_clear_hardware+0x5>
     9f5:	55                   	push   %rbp
     9f6:	48 89 e5             	mov    %rsp,%rbp
     9f9:	41 55                	push   %r13
     9fb:	41 54                	push   %r12
     9fd:	53                   	push   %rbx
     9fe:	4c 8b 6f 10          	mov    0x10(%rdi),%r13
     a02:	49 89 fc             	mov    %rdi,%r12
     a05:	48 8b 9f 10 07 00 00 	mov    0x710(%rdi),%rbx
     a0c:	41 8b 75 38          	mov    0x38(%r13),%esi
     a10:	83 e6 07             	and    $0x7,%esi
     a13:	83 c6 01             	add    $0x1,%esi
     a16:	c1 e6 0c             	shl    $0xc,%esi
     a19:	48 63 f6             	movslq %esi,%rsi
     a1c:	48 03 b7 20 07 00 00 	add    0x720(%rdi),%rsi
     a23:	31 ff                	xor    %edi,%edi
     a25:	e8 00 00 00 00       	callq  a2a <onic_clear_hardware+0x3a>
     a2a:	48 89 df             	mov    %rbx,%rdi
     a2d:	e8 00 00 00 00       	callq  a32 <onic_clear_hardware+0x42>
     a32:	48 89 df             	mov    %rbx,%rdi
     a35:	e8 00 00 00 00       	callq  a3a <onic_clear_hardware+0x4a>
     a3a:	49 8b b4 24 20 07 00 	mov    0x720(%r12),%rsi
     a41:	00 
     a42:	4c 89 ef             	mov    %r13,%rdi
     a45:	e8 00 00 00 00       	callq  a4a <onic_clear_hardware+0x5a>
     a4a:	49 c7 84 24 08 07 00 	movq   $0x0,0x708(%r12)
     a51:	00 00 00 00 00 
     a56:	49 c7 84 24 10 07 00 	movq   $0x0,0x710(%r12)
     a5d:	00 00 00 00 00 
     a62:	5b                   	pop    %rbx
     a63:	49 c7 84 24 18 07 00 	movq   $0x0,0x718(%r12)
     a6a:	00 00 00 00 00 
     a6f:	49 c7 84 24 20 07 00 	movq   $0x0,0x720(%r12)
     a76:	00 00 00 00 00 
     a7b:	41 5c                	pop    %r12
     a7d:	41 5d                	pop    %r13
     a7f:	5d                   	pop    %rbp
     a80:	c3                   	retq   
     a81:	0f 1f 44 00 00       	nopl   0x0(%rax,%rax,1)
     a86:	66 2e 0f 1f 84 00 00 	nopw   %cs:0x0(%rax,%rax,1)
     a8d:	00 00 00 

0000000000000a90 <onic_qdma_init_error_interrupt>:
     a90:	e8 00 00 00 00       	callq  a95 <onic_qdma_init_error_interrupt+0x5>
     a95:	55                   	push   %rbp
     a96:	c1 e6 0c             	shl    $0xc,%esi
     a99:	89 f0                	mov    %esi,%eax
     a9b:	48 89 e5             	mov    %rsp,%rbp
     a9e:	41 57                	push   %r15
     aa0:	41 56                	push   %r14
     aa2:	41 55                	push   %r13
     aa4:	41 54                	push   %r12
     aa6:	49 89 fc             	mov    %rdi,%r12
     aa9:	53                   	push   %rbx
     aaa:	25 00 f0 7f 00       	and    $0x7ff000,%eax
     aaf:	45 31 ff             	xor    %r15d,%r15d
     ab2:	49 c7 c6 00 00 00 00 	mov    $0x0,%r14
     ab9:	49 c7 c5 00 00 00 00 	mov    $0x0,%r13
     ac0:	48 83 ec 08          	sub    $0x8,%rsp
     ac4:	48 8b 4f 10          	mov    0x10(%rdi),%rcx
     ac8:	0f b6 7f 08          	movzbl 0x8(%rdi),%edi
     acc:	89 45 d4             	mov    %eax,-0x2c(%rbp)
     acf:	48 8d b1 04 0b 00 00 	lea    0xb04(%rcx),%rsi
     ad6:	09 c7                	or     %eax,%edi
     ad8:	e8 00 00 00 00       	callq  add <onic_qdma_init_error_interrupt+0x4d>
     add:	bf 3f 02 f9 01       	mov    $0x1f9023f,%edi
     ae2:	be 58 02 00 00       	mov    $0x258,%esi
     ae7:	eb 71                	jmp    b5a <onic_qdma_init_error_interrupt+0xca>
     ae9:	66 85 ff             	test   %di,%di
     aec:	0f 84 e0 00 00 00    	je     bd2 <onic_qdma_init_error_interrupt+0x142>
     af2:	40 0f b6 f7          	movzbl %dil,%esi
     af6:	b9 01 00 00 00       	mov    $0x1,%ecx
     afb:	48 85 f6             	test   %rsi,%rsi
     afe:	0f 84 91 00 00 00    	je     b95 <onic_qdma_init_error_interrupt+0x105>
     b04:	f6 c2 0f             	test   $0xf,%dl
     b07:	75 07                	jne    b10 <onic_qdma_init_error_interrupt+0x80>
     b09:	83 c1 04             	add    $0x4,%ecx
     b0c:	48 c1 ea 04          	shr    $0x4,%rdx
     b10:	49 8b 5c 24 10       	mov    0x10(%r12),%rbx
     b15:	f6 c2 03             	test   $0x3,%dl
     b18:	48 8d b3 4c 02 00 00 	lea    0x24c(%rbx),%rsi
     b1f:	75 07                	jne    b28 <onic_qdma_init_error_interrupt+0x98>
     b21:	83 c1 02             	add    $0x2,%ecx
     b24:	48 c1 ea 02          	shr    $0x2,%rdx
     b28:	83 e2 01             	and    $0x1,%edx
     b2b:	49 83 c7 04          	add    $0x4,%r15
     b2f:	29 d1                	sub    %edx,%ecx
     b31:	ba 01 00 00 00       	mov    $0x1,%edx
     b36:	48 d3 e2             	shl    %cl,%rdx
     b39:	48 21 d7             	and    %rdx,%rdi
     b3c:	09 c7                	or     %eax,%edi
     b3e:	e8 00 00 00 00       	callq  b43 <onic_qdma_init_error_interrupt+0xb3>
     b43:	49 83 ff 1c          	cmp    $0x1c,%r15
     b47:	74 58                	je     ba1 <onic_qdma_init_error_interrupt+0x111>
     b49:	43 8b 04 3e          	mov    (%r14,%r15,1),%eax
     b4d:	48 c1 e0 05          	shl    $0x5,%rax
     b51:	4c 01 e8             	add    %r13,%rax
     b54:	8b 70 10             	mov    0x10(%rax),%esi
     b57:	8b 78 18             	mov    0x18(%rax),%edi
     b5a:	49 03 74 24 10       	add    0x10(%r12),%rsi
     b5f:	43 8b 1c 3e          	mov    (%r14,%r15,1),%ebx
     b63:	e8 00 00 00 00       	callq  b68 <onic_qdma_init_error_interrupt+0xd8>
     b68:	49 8b 44 24 10       	mov    0x10(%r12),%rax
     b6d:	48 c1 e3 05          	shl    $0x5,%rbx
     b71:	48 8d b8 4c 02 00 00 	lea    0x24c(%rax),%rdi
     b78:	e8 00 00 00 00       	callq  b7d <onic_qdma_init_error_interrupt+0xed>
     b7d:	41 8b 7c 1d 1c       	mov    0x1c(%r13,%rbx,1),%edi
     b82:	48 85 ff             	test   %rdi,%rdi
     b85:	48 89 fa             	mov    %rdi,%rdx
     b88:	0f 85 5b ff ff ff    	jne    ae9 <onic_qdma_init_error_interrupt+0x59>
     b8e:	31 d2                	xor    %edx,%edx
     b90:	b9 31 00 00 00       	mov    $0x31,%ecx
     b95:	83 c1 08             	add    $0x8,%ecx
     b98:	48 c1 ea 08          	shr    $0x8,%rdx
     b9c:	e9 63 ff ff ff       	jmpq   b04 <onic_qdma_init_error_interrupt+0x74>
     ba1:	49 8b 44 24 10       	mov    0x10(%r12),%rax
     ba6:	8b 7d d4             	mov    -0x2c(%rbp),%edi
     ba9:	48 8d b0 04 0b 00 00 	lea    0xb04(%rax),%rsi
     bb0:	41 0f b6 44 24 08    	movzbl 0x8(%r12),%eax
     bb6:	81 cf 00 00 00 01    	or     $0x1000000,%edi
     bbc:	09 c7                	or     %eax,%edi
     bbe:	e8 00 00 00 00       	callq  bc3 <onic_qdma_init_error_interrupt+0x133>
     bc3:	48 83 c4 08          	add    $0x8,%rsp
     bc7:	5b                   	pop    %rbx
     bc8:	41 5c                	pop    %r12
     bca:	41 5d                	pop    %r13
     bcc:	41 5e                	pop    %r14
     bce:	41 5f                	pop    %r15
     bd0:	5d                   	pop    %rbp
     bd1:	c3                   	retq   
     bd2:	48 c1 ea 10          	shr    $0x10,%rdx
     bd6:	b9 11 00 00 00       	mov    $0x11,%ecx
     bdb:	0f b6 f2             	movzbl %dl,%esi
     bde:	e9 18 ff ff ff       	jmpq   afb <onic_qdma_init_error_interrupt+0x6b>
     be3:	0f 1f 00             	nopl   (%rax)
     be6:	66 2e 0f 1f 84 00 00 	nopw   %cs:0x0(%rax,%rax,1)
     bed:	00 00 00 

0000000000000bf0 <onic_qdma_clear_error_interrupt>:
     bf0:	e8 00 00 00 00       	callq  bf5 <onic_qdma_clear_error_interrupt+0x5>
     bf5:	55                   	push   %rbp
     bf6:	48 8b 77 10          	mov    0x10(%rdi),%rsi
     bfa:	31 ff                	xor    %edi,%edi
     bfc:	48 89 e5             	mov    %rsp,%rbp
     bff:	48 81 c6 04 0b 00 00 	add    $0xb04,%rsi
     c06:	e8 00 00 00 00       	callq  c0b <onic_qdma_clear_error_interrupt+0x1b>
     c0b:	5d                   	pop    %rbp
     c0c:	c3                   	retq   
     c0d:	0f 1f 00             	nopl   (%rax)

0000000000000c10 <onic_qdma_init_tx_queue>:
     c10:	e8 00 00 00 00       	callq  c15 <onic_qdma_init_tx_queue+0x5>
     c15:	55                   	push   %rbp
     c16:	48 89 e5             	mov    %rsp,%rbp
     c19:	41 55                	push   %r13
     c1b:	41 54                	push   %r12
     c1d:	53                   	push   %rbx
     c1e:	0f b7 de             	movzwl %si,%ebx
     c21:	49 89 fc             	mov    %rdi,%r12
     c24:	89 de                	mov    %ebx,%esi
     c26:	48 83 ec 20          	sub    $0x20,%rsp
     c2a:	48 c7 45 c8 00 00 00 	movq   $0x0,-0x38(%rbp)
     c31:	00 
     c32:	48 c7 45 d8 00 00 00 	movq   $0x0,-0x28(%rbp)
     c39:	00 
     c3a:	65 48 8b 04 25 28 00 	mov    %gs:0x28,%rax
     c41:	00 00 
     c43:	48 89 45 e0          	mov    %rax,-0x20(%rbp)
     c47:	31 c0                	xor    %eax,%eax
     c49:	0f b6 47 08          	movzbl 0x8(%rdi),%eax
     c4d:	c6 45 ce 11          	movb   $0x11,-0x32(%rbp)
     c51:	c6 45 cc 0d          	movb   $0xd,-0x34(%rbp)
     c55:	01 c0                	add    %eax,%eax
     c57:	66 89 45 ca          	mov    %ax,-0x36(%rbp)
     c5b:	0f b6 02             	movzbl (%rdx),%eax
     c5e:	c1 e0 04             	shl    $0x4,%eax
     c61:	88 45 cd             	mov    %al,-0x33(%rbp)
     c64:	48 8b 42 08          	mov    0x8(%rdx),%rax
     c68:	48 89 45 d0          	mov    %rax,-0x30(%rbp)
     c6c:	0f b7 42 10          	movzwl 0x10(%rdx),%eax
     c70:	31 d2                	xor    %edx,%edx
     c72:	66 25 ff 07          	and    $0x7ff,%ax
     c76:	66 89 45 d8          	mov    %ax,-0x28(%rbp)
     c7a:	e8 00 00 00 00       	callq  c7f <onic_qdma_init_tx_queue+0x6f>
     c7f:	85 c0                	test   %eax,%eax
     c81:	41 89 c5             	mov    %eax,%r13d
     c84:	78 17                	js     c9d <onic_qdma_init_tx_queue+0x8d>
     c86:	48 8d 4d c8          	lea    -0x38(%rbp),%rcx
     c8a:	31 d2                	xor    %edx,%edx
     c8c:	89 de                	mov    %ebx,%esi
     c8e:	4c 89 e7             	mov    %r12,%rdi
     c91:	e8 00 00 00 00       	callq  c96 <onic_qdma_init_tx_queue+0x86>
     c96:	85 c0                	test   %eax,%eax
     c98:	41 89 c5             	mov    %eax,%r13d
     c9b:	79 41                	jns    cde <onic_qdma_init_tx_queue+0xce>
     c9d:	31 d2                	xor    %edx,%edx
     c9f:	89 de                	mov    %ebx,%esi
     ca1:	4c 89 e7             	mov    %r12,%rdi
     ca4:	e8 00 00 00 00       	callq  ca9 <onic_qdma_init_tx_queue+0x99>
     ca9:	31 d2                	xor    %edx,%edx
     cab:	89 de                	mov    %ebx,%esi
     cad:	4c 89 e7             	mov    %r12,%rdi
     cb0:	e8 00 00 00 00       	callq  cb5 <onic_qdma_init_tx_queue+0xa5>
     cb5:	31 d2                	xor    %edx,%edx
     cb7:	89 de                	mov    %ebx,%esi
     cb9:	4c 89 e7             	mov    %r12,%rdi
     cbc:	e8 00 00 00 00       	callq  cc1 <onic_qdma_init_tx_queue+0xb1>
     cc1:	48 8b 4d e0          	mov    -0x20(%rbp),%rcx
     cc5:	65 48 33 0c 25 28 00 	xor    %gs:0x28,%rcx
     ccc:	00 00 
     cce:	44 89 e8             	mov    %r13d,%eax
     cd1:	75 36                	jne    d09 <onic_qdma_init_tx_queue+0xf9>
     cd3:	48 83 c4 20          	add    $0x20,%rsp
     cd7:	5b                   	pop    %rbx
     cd8:	41 5c                	pop    %r12
     cda:	41 5d                	pop    %r13
     cdc:	5d                   	pop    %rbp
     cdd:	c3                   	retq   
     cde:	31 d2                	xor    %edx,%edx
     ce0:	89 de                	mov    %ebx,%esi
     ce2:	4c 89 e7             	mov    %r12,%rdi
     ce5:	e8 00 00 00 00       	callq  cea <onic_qdma_init_tx_queue+0xda>
     cea:	85 c0                	test   %eax,%eax
     cec:	41 89 c5             	mov    %eax,%r13d
     cef:	78 ac                	js     c9d <onic_qdma_init_tx_queue+0x8d>
     cf1:	31 d2                	xor    %edx,%edx
     cf3:	89 de                	mov    %ebx,%esi
     cf5:	4c 89 e7             	mov    %r12,%rdi
     cf8:	e8 00 00 00 00       	callq  cfd <onic_qdma_init_tx_queue+0xed>
     cfd:	85 c0                	test   %eax,%eax
     cff:	41 89 c5             	mov    %eax,%r13d
     d02:	78 99                	js     c9d <onic_qdma_init_tx_queue+0x8d>
     d04:	45 31 ed             	xor    %r13d,%r13d
     d07:	eb b8                	jmp    cc1 <onic_qdma_init_tx_queue+0xb1>
     d09:	e8 00 00 00 00       	callq  d0e <onic_qdma_init_tx_queue+0xfe>
     d0e:	66 90                	xchg   %ax,%ax

0000000000000d10 <onic_qdma_init_rx_queue>:
     d10:	e8 00 00 00 00       	callq  d15 <onic_qdma_init_rx_queue+0x5>
     d15:	55                   	push   %rbp
     d16:	48 89 e5             	mov    %rsp,%rbp
     d19:	41 56                	push   %r14
     d1b:	41 55                	push   %r13
     d1d:	41 54                	push   %r12
     d1f:	53                   	push   %rbx
     d20:	0f b7 de             	movzwl %si,%ebx
     d23:	49 89 d6             	mov    %rdx,%r14
     d26:	89 de                	mov    %ebx,%esi
     d28:	49 89 fc             	mov    %rdi,%r12
     d2b:	48 83 ec 48          	sub    $0x48,%rsp
     d2f:	48 c7 45 a0 00 00 00 	movq   $0x0,-0x60(%rbp)
     d36:	00 
     d37:	48 c7 45 b0 00 00 00 	movq   $0x0,-0x50(%rbp)
     d3e:	00 
     d3f:	65 48 8b 04 25 28 00 	mov    %gs:0x28,%rax
     d46:	00 00 
     d48:	48 89 45 d8          	mov    %rax,-0x28(%rbp)
     d4c:	31 c0                	xor    %eax,%eax
     d4e:	0f b6 47 08          	movzbl 0x8(%rdi),%eax
     d52:	c6 45 a6 10          	movb   $0x10,-0x5a(%rbp)
     d56:	c6 45 a4 03          	movb   $0x3,-0x5c(%rbp)
     d5a:	01 c0                	add    %eax,%eax
     d5c:	66 89 45 a2          	mov    %ax,-0x5e(%rbp)
     d60:	0f b6 42 01          	movzbl 0x1(%rdx),%eax
     d64:	c1 e0 04             	shl    $0x4,%eax
     d67:	88 45 a5             	mov    %al,-0x5b(%rbp)
     d6a:	48 8b 42 08          	mov    0x8(%rdx),%rax
     d6e:	ba 01 00 00 00       	mov    $0x1,%edx
     d73:	48 89 45 a8          	mov    %rax,-0x58(%rbp)
     d77:	e8 00 00 00 00       	callq  d7c <onic_qdma_init_rx_queue+0x6c>
     d7c:	85 c0                	test   %eax,%eax
     d7e:	41 89 c5             	mov    %eax,%r13d
     d81:	78 1a                	js     d9d <onic_qdma_init_rx_queue+0x8d>
     d83:	48 8d 4d a0          	lea    -0x60(%rbp),%rcx
     d87:	ba 01 00 00 00       	mov    $0x1,%edx
     d8c:	89 de                	mov    %ebx,%esi
     d8e:	4c 89 e7             	mov    %r12,%rdi
     d91:	e8 00 00 00 00       	callq  d96 <onic_qdma_init_rx_queue+0x86>
     d96:	85 c0                	test   %eax,%eax
     d98:	41 89 c5             	mov    %eax,%r13d
     d9b:	79 64                	jns    e01 <onic_qdma_init_rx_queue+0xf1>
     d9d:	ba 01 00 00 00       	mov    $0x1,%edx
     da2:	89 de                	mov    %ebx,%esi
     da4:	4c 89 e7             	mov    %r12,%rdi
     da7:	e8 00 00 00 00       	callq  dac <onic_qdma_init_rx_queue+0x9c>
     dac:	ba 01 00 00 00       	mov    $0x1,%edx
     db1:	89 de                	mov    %ebx,%esi
     db3:	4c 89 e7             	mov    %r12,%rdi
     db6:	e8 00 00 00 00       	callq  dbb <onic_qdma_init_rx_queue+0xab>
     dbb:	ba 01 00 00 00       	mov    $0x1,%edx
     dc0:	89 de                	mov    %ebx,%esi
     dc2:	4c 89 e7             	mov    %r12,%rdi
     dc5:	e8 00 00 00 00       	callq  dca <onic_qdma_init_rx_queue+0xba>
     dca:	89 de                	mov    %ebx,%esi
     dcc:	4c 89 e7             	mov    %r12,%rdi
     dcf:	e8 00 00 00 00       	callq  dd4 <onic_qdma_init_rx_queue+0xc4>
     dd4:	89 de                	mov    %ebx,%esi
     dd6:	4c 89 e7             	mov    %r12,%rdi
     dd9:	e8 00 00 00 00       	callq  dde <onic_qdma_init_rx_queue+0xce>
     dde:	48 8b 4d d8          	mov    -0x28(%rbp),%rcx
     de2:	65 48 33 0c 25 28 00 	xor    %gs:0x28,%rcx
     de9:	00 00 
     deb:	44 89 e8             	mov    %r13d,%eax
     dee:	0f 85 2d 01 00 00    	jne    f21 <onic_qdma_init_rx_queue+0x211>
     df4:	48 83 c4 48          	add    $0x48,%rsp
     df8:	5b                   	pop    %rbx
     df9:	41 5c                	pop    %r12
     dfb:	41 5d                	pop    %r13
     dfd:	41 5e                	pop    %r14
     dff:	5d                   	pop    %rbp
     e00:	c3                   	retq   
     e01:	ba 01 00 00 00       	mov    $0x1,%edx
     e06:	89 de                	mov    %ebx,%esi
     e08:	4c 89 e7             	mov    %r12,%rdi
     e0b:	e8 00 00 00 00       	callq  e10 <onic_qdma_init_rx_queue+0x100>
     e10:	85 c0                	test   %eax,%eax
     e12:	41 89 c5             	mov    %eax,%r13d
     e15:	78 86                	js     d9d <onic_qdma_init_rx_queue+0x8d>
     e17:	ba 01 00 00 00       	mov    $0x1,%edx
     e1c:	89 de                	mov    %ebx,%esi
     e1e:	4c 89 e7             	mov    %r12,%rdi
     e21:	e8 00 00 00 00       	callq  e26 <onic_qdma_init_rx_queue+0x116>
     e26:	85 c0                	test   %eax,%eax
     e28:	41 89 c5             	mov    %eax,%r13d
     e2b:	0f 88 6c ff ff ff    	js     d9d <onic_qdma_init_rx_queue+0x8d>
     e31:	41 0f b6 06          	movzbl (%r14),%eax
     e35:	89 de                	mov    %ebx,%esi
     e37:	4c 89 e7             	mov    %r12,%rdi
     e3a:	48 c7 45 98 00 00 00 	movq   $0x0,-0x68(%rbp)
     e41:	00 
     e42:	c6 45 9b 08          	movb   $0x8,-0x65(%rbp)
     e46:	c6 45 9e 01          	movb   $0x1,-0x62(%rbp)
     e4a:	83 e0 0f             	and    $0xf,%eax
     e4d:	01 c0                	add    %eax,%eax
     e4f:	88 45 98             	mov    %al,-0x68(%rbp)
     e52:	e8 00 00 00 00       	callq  e57 <onic_qdma_init_rx_queue+0x147>
     e57:	85 c0                	test   %eax,%eax
     e59:	41 89 c5             	mov    %eax,%r13d
     e5c:	0f 88 3b ff ff ff    	js     d9d <onic_qdma_init_rx_queue+0x8d>
     e62:	48 8d 55 98          	lea    -0x68(%rbp),%rdx
     e66:	89 de                	mov    %ebx,%esi
     e68:	4c 89 e7             	mov    %r12,%rdi
     e6b:	e8 00 00 00 00       	callq  e70 <onic_qdma_init_rx_queue+0x160>
     e70:	85 c0                	test   %eax,%eax
     e72:	41 89 c5             	mov    %eax,%r13d
     e75:	0f 88 22 ff ff ff    	js     d9d <onic_qdma_init_rx_queue+0x8d>
     e7b:	41 0f b6 44 24 08    	movzbl 0x8(%r12),%eax
     e81:	48 c7 45 b8 00 00 00 	movq   $0x0,-0x48(%rbp)
     e88:	00 
     e89:	89 de                	mov    %ebx,%esi
     e8b:	c6 45 b8 17          	movb   $0x17,-0x48(%rbp)
     e8f:	48 c7 45 c8 00 00 00 	movq   $0x0,-0x38(%rbp)
     e96:	00 
     e97:	4c 89 e7             	mov    %r12,%rdi
     e9a:	48 c7 45 d0 00 00 00 	movq   $0x0,-0x30(%rbp)
     ea1:	00 
     ea2:	c6 45 ce 01          	movb   $0x1,-0x32(%rbp)
     ea6:	c1 e0 05             	shl    $0x5,%eax
     ea9:	89 c2                	mov    %eax,%edx
     eab:	0f b7 45 b8          	movzwl -0x48(%rbp),%eax
     eaf:	66 25 1f e0          	and    $0xe01f,%ax
     eb3:	09 d0                	or     %edx,%eax
     eb5:	41 0f b6 56 02       	movzbl 0x2(%r14),%edx
     eba:	66 89 45 b8          	mov    %ax,-0x48(%rbp)
     ebe:	0f b6 45 bb          	movzbl -0x45(%rbp),%eax
     ec2:	c1 e2 04             	shl    $0x4,%edx
     ec5:	83 c8 08             	or     $0x8,%eax
     ec8:	83 e0 0f             	and    $0xf,%eax
     ecb:	09 d0                	or     %edx,%eax
     ecd:	88 45 bb             	mov    %al,-0x45(%rbp)
     ed0:	49 8b 46 10          	mov    0x10(%r14),%rax
     ed4:	48 89 45 c0          	mov    %rax,-0x40(%rbp)
     ed8:	41 0f b6 46 03       	movzbl 0x3(%r14),%eax
     edd:	83 e0 03             	and    $0x3,%eax
     ee0:	88 45 c8             	mov    %al,-0x38(%rbp)
     ee3:	41 0f b7 46 18       	movzwl 0x18(%r14),%eax
     ee8:	66 25 ff 07          	and    $0x7ff,%ax
     eec:	66 89 45 d0          	mov    %ax,-0x30(%rbp)
     ef0:	e8 00 00 00 00       	callq  ef5 <onic_qdma_init_rx_queue+0x1e5>
     ef5:	85 c0                	test   %eax,%eax
     ef7:	41 89 c5             	mov    %eax,%r13d
     efa:	0f 88 9d fe ff ff    	js     d9d <onic_qdma_init_rx_queue+0x8d>
     f00:	48 8d 55 b8          	lea    -0x48(%rbp),%rdx
     f04:	89 de                	mov    %ebx,%esi
     f06:	4c 89 e7             	mov    %r12,%rdi
     f09:	e8 00 00 00 00       	callq  f0e <onic_qdma_init_rx_queue+0x1fe>
     f0e:	85 c0                	test   %eax,%eax
     f10:	41 89 c5             	mov    %eax,%r13d
     f13:	0f 88 84 fe ff ff    	js     d9d <onic_qdma_init_rx_queue+0x8d>
     f19:	45 31 ed             	xor    %r13d,%r13d
     f1c:	e9 bd fe ff ff       	jmpq   dde <onic_qdma_init_rx_queue+0xce>
     f21:	e8 00 00 00 00       	callq  f26 <onic_qdma_init_rx_queue+0x216>
     f26:	66 2e 0f 1f 84 00 00 	nopw   %cs:0x0(%rax,%rax,1)
     f2d:	00 00 00 

0000000000000f30 <onic_qdma_clear_tx_queue>:
     f30:	e8 00 00 00 00       	callq  f35 <onic_qdma_clear_tx_queue+0x5>
     f35:	55                   	push   %rbp
     f36:	31 d2                	xor    %edx,%edx
     f38:	48 89 e5             	mov    %rsp,%rbp
     f3b:	41 54                	push   %r12
     f3d:	53                   	push   %rbx
     f3e:	0f b7 de             	movzwl %si,%ebx
     f41:	49 89 fc             	mov    %rdi,%r12
     f44:	89 de                	mov    %ebx,%esi
     f46:	e8 00 00 00 00       	callq  f4b <onic_qdma_clear_tx_queue+0x1b>
     f4b:	89 de                	mov    %ebx,%esi
     f4d:	4c 89 e7             	mov    %r12,%rdi
     f50:	31 d2                	xor    %edx,%edx
     f52:	e8 00 00 00 00       	callq  f57 <onic_qdma_clear_tx_queue+0x27>
     f57:	89 de                	mov    %ebx,%esi
     f59:	4c 89 e7             	mov    %r12,%rdi
     f5c:	31 d2                	xor    %edx,%edx
     f5e:	e8 00 00 00 00       	callq  f63 <onic_qdma_clear_tx_queue+0x33>
     f63:	5b                   	pop    %rbx
     f64:	41 5c                	pop    %r12
     f66:	5d                   	pop    %rbp
     f67:	c3                   	retq   
     f68:	0f 1f 84 00 00 00 00 	nopl   0x0(%rax,%rax,1)
     f6f:	00 

0000000000000f70 <onic_qdma_clear_rx_queue>:
     f70:	e8 00 00 00 00       	callq  f75 <onic_qdma_clear_rx_queue+0x5>
     f75:	55                   	push   %rbp
     f76:	ba 01 00 00 00       	mov    $0x1,%edx
     f7b:	48 89 e5             	mov    %rsp,%rbp
     f7e:	41 54                	push   %r12
     f80:	53                   	push   %rbx
     f81:	0f b7 de             	movzwl %si,%ebx
     f84:	49 89 fc             	mov    %rdi,%r12
     f87:	89 de                	mov    %ebx,%esi
     f89:	e8 00 00 00 00       	callq  f8e <onic_qdma_clear_rx_queue+0x1e>
     f8e:	89 de                	mov    %ebx,%esi
     f90:	4c 89 e7             	mov    %r12,%rdi
     f93:	ba 01 00 00 00       	mov    $0x1,%edx
     f98:	e8 00 00 00 00       	callq  f9d <onic_qdma_clear_rx_queue+0x2d>
     f9d:	ba 01 00 00 00       	mov    $0x1,%edx
     fa2:	89 de                	mov    %ebx,%esi
     fa4:	4c 89 e7             	mov    %r12,%rdi
     fa7:	e8 00 00 00 00       	callq  fac <onic_qdma_clear_rx_queue+0x3c>
     fac:	89 de                	mov    %ebx,%esi
     fae:	4c 89 e7             	mov    %r12,%rdi
     fb1:	e8 00 00 00 00       	callq  fb6 <onic_qdma_clear_rx_queue+0x46>
     fb6:	89 de                	mov    %ebx,%esi
     fb8:	4c 89 e7             	mov    %r12,%rdi
     fbb:	e8 00 00 00 00       	callq  fc0 <onic_qdma_clear_rx_queue+0x50>
     fc0:	5b                   	pop    %rbx
     fc1:	41 5c                	pop    %r12
     fc3:	5d                   	pop    %rbp
     fc4:	c3                   	retq   
     fc5:	90                   	nop
     fc6:	66 2e 0f 1f 84 00 00 	nopw   %cs:0x0(%rax,%rax,1)
     fcd:	00 00 00 

0000000000000fd0 <onic_set_tx_head>:
     fd0:	e8 00 00 00 00       	callq  fd5 <onic_set_tx_head+0x5>
     fd5:	0f b7 f6             	movzwl %si,%esi
     fd8:	55                   	push   %rbp
     fd9:	c1 e6 04             	shl    $0x4,%esi
     fdc:	81 c6 04 80 01 00    	add    $0x18004,%esi
     fe2:	48 89 e5             	mov    %rsp,%rbp
     fe5:	48 63 f6             	movslq %esi,%rsi
     fe8:	48 03 77 10          	add    0x10(%rdi),%rsi
     fec:	0f b7 fa             	movzwl %dx,%edi
     fef:	e8 00 00 00 00       	callq  ff4 <onic_set_tx_head+0x24>
     ff4:	5d                   	pop    %rbp
     ff5:	c3                   	retq   
     ff6:	66 2e 0f 1f 84 00 00 	nopw   %cs:0x0(%rax,%rax,1)
     ffd:	00 00 00 

0000000000001000 <onic_set_rx_head>:
    1000:	e8 00 00 00 00       	callq  1005 <onic_set_rx_head+0x5>
    1005:	0f b7 f6             	movzwl %si,%esi
    1008:	55                   	push   %rbp
    1009:	c1 e6 04             	shl    $0x4,%esi
    100c:	81 c6 08 80 01 00    	add    $0x18008,%esi
    1012:	48 89 e5             	mov    %rsp,%rbp
    1015:	48 63 f6             	movslq %esi,%rsi
    1018:	48 03 77 10          	add    0x10(%rdi),%rsi
    101c:	0f b7 fa             	movzwl %dx,%edi
    101f:	e8 00 00 00 00       	callq  1024 <onic_set_rx_head+0x24>
    1024:	5d                   	pop    %rbp
    1025:	c3                   	retq   
    1026:	66 2e 0f 1f 84 00 00 	nopw   %cs:0x0(%rax,%rax,1)
    102d:	00 00 00 

0000000000001030 <onic_set_completion_tail>:
    1030:	e8 00 00 00 00       	callq  1035 <onic_set_completion_tail+0x5>
    1035:	0f b7 f6             	movzwl %si,%esi
    1038:	55                   	push   %rbp
    1039:	c1 e1 1c             	shl    $0x1c,%ecx
    103c:	c1 e6 04             	shl    $0x4,%esi
    103f:	0f b7 d2             	movzwl %dx,%edx
    1042:	81 c6 0c 80 01 00    	add    $0x1800c,%esi
    1048:	81 ca 00 00 00 0d    	or     $0xd000000,%edx
    104e:	48 89 e5             	mov    %rsp,%rbp
    1051:	48 63 f6             	movslq %esi,%rsi
    1054:	48 03 77 10          	add    0x10(%rdi),%rsi
    1058:	89 cf                	mov    %ecx,%edi
    105a:	81 e7 00 00 00 10    	and    $0x10000000,%edi
    1060:	09 d7                	or     %edx,%edi
    1062:	e8 00 00 00 00       	callq  1067 <onic_set_completion_tail+0x37>
    1067:	5d                   	pop    %rbp
    1068:	c3                   	retq   
    1069:	0f 1f 80 00 00 00 00 	nopl   0x0(%rax)

0000000000001070 <onic_error_handler>:
    1070:	e8 00 00 00 00       	callq  1075 <onic_error_handler+0x5>
    1075:	55                   	push   %rbp
    1076:	b8 02 00 00 00       	mov    $0x2,%eax
    107b:	48 89 e5             	mov    %rsp,%rbp
    107e:	5d                   	pop    %rbp
    107f:	c3                   	retq   

0000000000001080 <onic_error_thread_fn>:
    1080:	e8 00 00 00 00       	callq  1085 <onic_error_thread_fn+0x5>
    1085:	55                   	push   %rbp
    1086:	48 8b 46 10          	mov    0x10(%rsi),%rax
    108a:	89 f9                	mov    %edi,%ecx
    108c:	48 c7 c6 00 00 00 00 	mov    $0x0,%rsi
    1093:	48 89 e5             	mov    %rsp,%rbp
    1096:	8b 50 38             	mov    0x38(%rax),%edx
    1099:	48 8d b8 b0 00 00 00 	lea    0xb0(%rax),%rdi
    10a0:	83 e2 07             	and    $0x7,%edx
    10a3:	e8 00 00 00 00       	callq  10a8 <onic_error_thread_fn+0x28>
    10a8:	b8 01 00 00 00       	mov    $0x1,%eax
    10ad:	5d                   	pop    %rbp
    10ae:	c3                   	retq   
    10af:	90                   	nop

00000000000010b0 <onic_user_thread_fn>:
    10b0:	e8 00 00 00 00       	callq  10b5 <onic_user_thread_fn+0x5>
    10b5:	55                   	push   %rbp
    10b6:	48 8b 46 10          	mov    0x10(%rsi),%rax
    10ba:	89 f9                	mov    %edi,%ecx
    10bc:	48 c7 c6 00 00 00 00 	mov    $0x0,%rsi
    10c3:	48 89 e5             	mov    %rsp,%rbp
    10c6:	8b 50 38             	mov    0x38(%rax),%edx
    10c9:	48 8d b8 b0 00 00 00 	lea    0xb0(%rax),%rdi
    10d0:	83 e2 07             	and    $0x7,%edx
    10d3:	e8 00 00 00 00       	callq  10d8 <onic_user_thread_fn+0x28>
    10d8:	b8 01 00 00 00       	mov    $0x1,%eax
    10dd:	5d                   	pop    %rbp
    10de:	c3                   	retq   
    10df:	90                   	nop

00000000000010e0 <onic_user_handler>:
    10e0:	e8 00 00 00 00       	callq  10e5 <onic_user_handler+0x5>
    10e5:	55                   	push   %rbp
    10e6:	48 8b 7e 10          	mov    0x10(%rsi),%rdi
    10ea:	48 c7 c6 00 00 00 00 	mov    $0x0,%rsi
    10f1:	48 89 e5             	mov    %rsp,%rbp
    10f4:	48 81 c7 b0 00 00 00 	add    $0xb0,%rdi
    10fb:	e8 00 00 00 00       	callq  1100 <onic_user_handler+0x20>
    1100:	b8 02 00 00 00       	mov    $0x2,%eax
    1105:	5d                   	pop    %rbp
    1106:	c3                   	retq   
    1107:	66 0f 1f 84 00 00 00 	nopw   0x0(%rax,%rax,1)
    110e:	00 00 

0000000000001110 <onic_q_handler>:
    1110:	e8 00 00 00 00       	callq  1115 <onic_q_handler+0x5>
    1115:	0f b7 16             	movzwl (%rsi),%edx
    1118:	48 8b 46 08          	mov    0x8(%rsi),%rax
    111c:	55                   	push   %rbp
    111d:	48 89 e5             	mov    %rsp,%rbp
    1120:	53                   	push   %rbx
    1121:	48 8b 9c d0 08 05 00 	mov    0x508(%rax,%rdx,8),%rbx
    1128:	00 
    1129:	48 83 c3 70          	add    $0x70,%rbx
    112d:	48 89 df             	mov    %rbx,%rdi
    1130:	e8 00 00 00 00       	callq  1135 <onic_q_handler+0x25>
    1135:	84 c0                	test   %al,%al
    1137:	74 08                	je     1141 <onic_q_handler+0x31>
    1139:	48 89 df             	mov    %rbx,%rdi
    113c:	e8 00 00 00 00       	callq  1141 <onic_q_handler+0x31>
    1141:	b8 01 00 00 00       	mov    $0x1,%eax
    1146:	5b                   	pop    %rbx
    1147:	5d                   	pop    %rbp
    1148:	c3                   	retq   
    1149:	0f 1f 80 00 00 00 00 	nopl   0x0(%rax)

0000000000001150 <onic_init_capacity>:
    1150:	e8 00 00 00 00       	callq  1155 <onic_init_capacity+0x5>
    1155:	55                   	push   %rbp
    1156:	b9 04 00 00 00       	mov    $0x4,%ecx
    115b:	48 89 e5             	mov    %rsp,%rbp
    115e:	41 55                	push   %r13
    1160:	41 54                	push   %r12
    1162:	53                   	push   %rbx
    1163:	48 89 fb             	mov    %rdi,%rbx
    1166:	48 83 ec 08          	sub    $0x8,%rsp
    116a:	48 8b 47 20          	mov    0x20(%rdi),%rax
    116e:	48 8b 7f 10          	mov    0x10(%rdi),%rdi
    1172:	83 e0 01             	and    $0x1,%eax
    1175:	48 83 f8 01          	cmp    $0x1,%rax
    1179:	19 f6                	sbb    %esi,%esi
    117b:	83 c6 03             	add    $0x3,%esi
    117e:	48 83 f8 01          	cmp    $0x1,%rax
    1182:	19 d2                	sbb    %edx,%edx
    1184:	41 89 f5             	mov    %esi,%r13d
    1187:	83 c2 42             	add    $0x42,%edx
    118a:	48 83 f8 01          	cmp    $0x1,%rax
    118e:	45 19 e4             	sbb    %r12d,%r12d
    1191:	45 31 c0             	xor    %r8d,%r8d
    1194:	41 83 c4 02          	add    $0x2,%r12d
    1198:	e8 00 00 00 00       	callq  119d <onic_init_capacity+0x4d>
    119d:	85 c0                	test   %eax,%eax
    119f:	78 5b                	js     11fc <onic_init_capacity+0xac>
    11a1:	44 29 e0             	sub    %r12d,%eax
    11a4:	48 c7 c6 00 00 00 00 	mov    $0x0,%rsi
    11ab:	66 89 43 2c          	mov    %ax,0x2c(%rbx)
    11af:	0f b7 d0             	movzwl %ax,%edx
    11b2:	48 8b 43 10          	mov    0x10(%rbx),%rax
    11b6:	48 8d b8 b0 00 00 00 	lea    0xb0(%rax),%rdi
    11bd:	e8 00 00 00 00       	callq  11c2 <onic_init_capacity+0x72>
    11c2:	48 8b 4b 38          	mov    0x38(%rbx),%rcx
    11c6:	0f b7 73 2c          	movzwl 0x2c(%rbx),%esi
    11ca:	8b 91 cc 03 00 00    	mov    0x3cc(%rcx),%edx
    11d0:	89 f0                	mov    %esi,%eax
    11d2:	66 39 d6             	cmp    %dx,%si
    11d5:	0f 42 d6             	cmovb  %esi,%edx
    11d8:	66 89 53 2e          	mov    %dx,0x2e(%rbx)
    11dc:	8b 89 4c 03 00 00    	mov    0x34c(%rcx),%ecx
    11e2:	66 39 ce             	cmp    %cx,%si
    11e5:	0f b7 d1             	movzwl %cx,%edx
    11e8:	0f 43 c2             	cmovae %edx,%eax
    11eb:	66 89 43 30          	mov    %ax,0x30(%rbx)
    11ef:	48 83 c4 08          	add    $0x8,%rsp
    11f3:	31 c0                	xor    %eax,%eax
    11f5:	5b                   	pop    %rbx
    11f6:	41 5c                	pop    %r12
    11f8:	41 5d                	pop    %r13
    11fa:	5d                   	pop    %rbp
    11fb:	c3                   	retq   
    11fc:	48 8b 7b 10          	mov    0x10(%rbx),%rdi
    1200:	89 c1                	mov    %eax,%ecx
    1202:	44 89 ea             	mov    %r13d,%edx
    1205:	48 c7 c6 00 00 00 00 	mov    $0x0,%rsi
    120c:	89 45 e4             	mov    %eax,-0x1c(%rbp)
    120f:	48 81 c7 b0 00 00 00 	add    $0xb0,%rdi
    1216:	e8 00 00 00 00       	callq  121b <onic_init_capacity+0xcb>
    121b:	8b 45 e4             	mov    -0x1c(%rbp),%eax
    121e:	48 83 c4 08          	add    $0x8,%rsp
    1222:	5b                   	pop    %rbx
    1223:	41 5c                	pop    %r12
    1225:	41 5d                	pop    %r13
    1227:	5d                   	pop    %rbp
    1228:	c3                   	retq   
    1229:	0f 1f 80 00 00 00 00 	nopl   0x0(%rax)

0000000000001230 <onic_clear_capacity>:
    1230:	e8 00 00 00 00       	callq  1235 <onic_clear_capacity+0x5>
    1235:	31 c0                	xor    %eax,%eax
    1237:	55                   	push   %rbp
    1238:	c7 47 2c 00 00 00 00 	movl   $0x0,0x2c(%rdi)
    123f:	66 89 47 30          	mov    %ax,0x30(%rdi)
    1243:	48 8b 7f 10          	mov    0x10(%rdi),%rdi
    1247:	48 89 e5             	mov    %rsp,%rbp
    124a:	e8 00 00 00 00       	callq  124f <onic_clear_capacity+0x1f>
    124f:	5d                   	pop    %rbp
    1250:	c3                   	retq   
    1251:	0f 1f 44 00 00       	nopl   0x0(%rax,%rax,1)
    1256:	66 2e 0f 1f 84 00 00 	nopw   %cs:0x0(%rax,%rax,1)
    125d:	00 00 00 

0000000000001260 <onic_clear_interrupt>:
    1260:	e8 00 00 00 00       	callq  1265 <onic_clear_interrupt+0x5>
    1265:	55                   	push   %rbp
    1266:	48 89 e5             	mov    %rsp,%rbp
    1269:	41 55                	push   %r13
    126b:	41 54                	push   %r12
    126d:	53                   	push   %rbx
    126e:	48 8b 47 20          	mov    0x20(%rdi),%rax
    1272:	49 89 fd             	mov    %rdi,%r13
    1275:	44 0f b7 67 2c       	movzwl 0x2c(%rdi),%r12d
    127a:	a8 01                	test   $0x1,%al
    127c:	44 89 e3             	mov    %r12d,%ebx
    127f:	74 08                	je     1289 <onic_clear_interrupt+0x29>
    1281:	48 8b 47 18          	mov    0x18(%rdi),%rax
    1285:	a8 01                	test   $0x1,%al
    1287:	75 64                	jne    12ed <onic_clear_interrupt+0x8d>
    1289:	49 8b 45 18          	mov    0x18(%r13),%rax
    128d:	a8 02                	test   $0x2,%al
    128f:	75 44                	jne    12d5 <onic_clear_interrupt+0x75>
    1291:	83 eb 01             	sub    $0x1,%ebx
    1294:	83 fb ff             	cmp    $0xffffffff,%ebx
    1297:	74 35                	je     12ce <onic_clear_interrupt+0x6e>
    1299:	48 63 c3             	movslq %ebx,%rax
    129c:	4d 8b a4 c5 08 01 00 	mov    0x108(%r13,%rax,8),%r12
    12a3:	00 
    12a4:	4d 85 e4             	test   %r12,%r12
    12a7:	74 e8                	je     1291 <onic_clear_interrupt+0x31>
    12a9:	49 8b 7d 10          	mov    0x10(%r13),%rdi
    12ad:	89 de                	mov    %ebx,%esi
    12af:	83 eb 01             	sub    $0x1,%ebx
    12b2:	e8 00 00 00 00       	callq  12b7 <onic_clear_interrupt+0x57>
    12b7:	4c 89 e6             	mov    %r12,%rsi
    12ba:	89 c7                	mov    %eax,%edi
    12bc:	e8 00 00 00 00       	callq  12c1 <onic_clear_interrupt+0x61>
    12c1:	4c 89 e7             	mov    %r12,%rdi
    12c4:	e8 00 00 00 00       	callq  12c9 <onic_clear_interrupt+0x69>
    12c9:	83 fb ff             	cmp    $0xffffffff,%ebx
    12cc:	75 cb                	jne    1299 <onic_clear_interrupt+0x39>
    12ce:	5b                   	pop    %rbx
    12cf:	41 5c                	pop    %r12
    12d1:	41 5d                	pop    %r13
    12d3:	5d                   	pop    %rbp
    12d4:	c3                   	retq   
    12d5:	49 8b 7d 10          	mov    0x10(%r13),%rdi
    12d9:	44 89 e6             	mov    %r12d,%esi
    12dc:	e8 00 00 00 00       	callq  12e1 <onic_clear_interrupt+0x81>
    12e1:	4c 89 ee             	mov    %r13,%rsi
    12e4:	89 c7                	mov    %eax,%edi
    12e6:	e8 00 00 00 00       	callq  12eb <onic_clear_interrupt+0x8b>
    12eb:	eb a4                	jmp    1291 <onic_clear_interrupt+0x31>
    12ed:	48 8b 7f 10          	mov    0x10(%rdi),%rdi
    12f1:	41 8d 74 24 01       	lea    0x1(%r12),%esi
    12f6:	e8 00 00 00 00       	callq  12fb <onic_clear_interrupt+0x9b>
    12fb:	4c 89 ee             	mov    %r13,%rsi
    12fe:	89 c7                	mov    %eax,%edi
    1300:	e8 00 00 00 00       	callq  1305 <onic_clear_interrupt+0xa5>
    1305:	49 8b bd 10 07 00 00 	mov    0x710(%r13),%rdi
    130c:	e8 00 00 00 00       	callq  1311 <onic_clear_interrupt+0xb1>
    1311:	e9 73 ff ff ff       	jmpq   1289 <onic_clear_interrupt+0x29>
    1316:	66 2e 0f 1f 84 00 00 	nopw   %cs:0x0(%rax,%rax,1)
    131d:	00 00 00 

0000000000001320 <onic_init_interrupt>:
    1320:	e8 00 00 00 00       	callq  1325 <onic_init_interrupt+0x5>
    1325:	55                   	push   %rbp
    1326:	48 89 e5             	mov    %rsp,%rbp
    1329:	41 57                	push   %r15
    132b:	41 56                	push   %r14
    132d:	41 55                	push   %r13
    132f:	41 54                	push   %r12
    1331:	49 89 ff             	mov    %rdi,%r15
    1334:	53                   	push   %rbx
    1335:	48 83 ec 10          	sub    $0x10,%rsp
    1339:	66 83 7f 2c 00       	cmpw   $0x0,0x2c(%rdi)
    133e:	48 8b 47 10          	mov    0x10(%rdi),%rax
    1342:	48 89 45 c8          	mov    %rax,-0x38(%rbp)
    1346:	0f 84 04 01 00 00    	je     1450 <onic_init_interrupt+0x130>
    134c:	49 89 c6             	mov    %rax,%r14
    134f:	31 db                	xor    %ebx,%ebx
    1351:	bf 20 00 00 00       	mov    $0x20,%edi
    1356:	e8 00 00 00 00       	callq  135b <onic_init_interrupt+0x3b>
    135b:	48 8b 3d 00 00 00 00 	mov    0x0(%rip),%rdi        # 1362 <onic_init_interrupt+0x42>
    1362:	ba 18 04 00 00       	mov    $0x418,%edx
    1367:	be c0 0d 00 00       	mov    $0xdc0,%esi
    136c:	49 89 c5             	mov    %rax,%r13
    136f:	e8 00 00 00 00       	callq  1374 <onic_init_interrupt+0x54>
    1374:	48 85 c0             	test   %rax,%rax
    1377:	49 89 c4             	mov    %rax,%r12
    137a:	0f 84 69 01 00 00    	je     14e9 <onic_init_interrupt+0x1c9>
    1380:	49 8b 4f 38          	mov    0x38(%r15),%rcx
    1384:	41 89 d8             	mov    %ebx,%r8d
    1387:	48 c7 c2 00 00 00 00 	mov    $0x0,%rdx
    138e:	be 20 00 00 00       	mov    $0x20,%esi
    1393:	4c 89 ef             	mov    %r13,%rdi
    1396:	4c 89 78 08          	mov    %r15,0x8(%rax)
    139a:	66 89 18             	mov    %bx,(%rax)
    139d:	e8 00 00 00 00       	callq  13a2 <onic_init_interrupt+0x82>
    13a2:	89 de                	mov    %ebx,%esi
    13a4:	4c 89 f7             	mov    %r14,%rdi
    13a7:	e8 00 00 00 00       	callq  13ac <onic_init_interrupt+0x8c>
    13ac:	4d 89 e8             	mov    %r13,%r8
    13af:	31 c9                	xor    %ecx,%ecx
    13b1:	31 d2                	xor    %edx,%edx
    13b3:	4d 89 e1             	mov    %r12,%r9
    13b6:	48 c7 c6 00 00 00 00 	mov    $0x0,%rsi
    13bd:	89 c7                	mov    %eax,%edi
    13bf:	e8 00 00 00 00       	callq  13c4 <onic_init_interrupt+0xa4>
    13c4:	85 c0                	test   %eax,%eax
    13c6:	4d 8d 86 b0 00 00 00 	lea    0xb0(%r14),%r8
    13cd:	78 4c                	js     141b <onic_init_interrupt+0xfb>
    13cf:	89 de                	mov    %ebx,%esi
    13d1:	4c 89 f7             	mov    %r14,%rdi
    13d4:	4c 89 45 d0          	mov    %r8,-0x30(%rbp)
    13d8:	e8 00 00 00 00       	callq  13dd <onic_init_interrupt+0xbd>
    13dd:	4c 8b 45 d0          	mov    -0x30(%rbp),%r8
    13e1:	89 c2                	mov    %eax,%edx
    13e3:	48 c7 c6 00 00 00 00 	mov    $0x0,%rsi
    13ea:	4c 89 e9             	mov    %r13,%rcx
    13ed:	4c 89 c7             	mov    %r8,%rdi
    13f0:	e8 00 00 00 00       	callq  13f5 <onic_init_interrupt+0xd5>
    13f5:	4d 89 a4 df 08 01 00 	mov    %r12,0x108(%r15,%rbx,8)
    13fc:	00 
    13fd:	41 0f b7 47 2c       	movzwl 0x2c(%r15),%eax
    1402:	89 de                	mov    %ebx,%esi
    1404:	83 c6 01             	add    $0x1,%esi
    1407:	48 83 c3 01          	add    $0x1,%rbx
    140b:	41 89 f4             	mov    %esi,%r12d
    140e:	39 f0                	cmp    %esi,%eax
    1410:	7e 43                	jle    1455 <onic_init_interrupt+0x135>
    1412:	4d 8b 77 10          	mov    0x10(%r15),%r14
    1416:	e9 36 ff ff ff       	jmpq   1351 <onic_init_interrupt+0x31>
    141b:	4c 89 ea             	mov    %r13,%rdx
    141e:	48 c7 c6 00 00 00 00 	mov    $0x0,%rsi
    1425:	4c 89 c7             	mov    %r8,%rdi
    1428:	89 45 d0             	mov    %eax,-0x30(%rbp)
    142b:	e8 00 00 00 00       	callq  1430 <onic_init_interrupt+0x110>
    1430:	8b 45 d0             	mov    -0x30(%rbp),%eax
    1433:	4c 89 ff             	mov    %r15,%rdi
    1436:	89 45 d0             	mov    %eax,-0x30(%rbp)
    1439:	e8 00 00 00 00       	callq  143e <onic_init_interrupt+0x11e>
    143e:	8b 45 d0             	mov    -0x30(%rbp),%eax
    1441:	48 83 c4 10          	add    $0x10,%rsp
    1445:	5b                   	pop    %rbx
    1446:	41 5c                	pop    %r12
    1448:	41 5d                	pop    %r13
    144a:	41 5e                	pop    %r14
    144c:	41 5f                	pop    %r15
    144e:	5d                   	pop    %rbp
    144f:	c3                   	retq   
    1450:	31 f6                	xor    %esi,%esi
    1452:	45 31 e4             	xor    %r12d,%r12d
    1455:	48 8b 7d c8          	mov    -0x38(%rbp),%rdi
    1459:	e8 00 00 00 00       	callq  145e <onic_init_interrupt+0x13e>
    145e:	31 c9                	xor    %ecx,%ecx
    1460:	4d 89 f9             	mov    %r15,%r9
    1463:	49 c7 c0 00 00 00 00 	mov    $0x0,%r8
    146a:	48 c7 c2 00 00 00 00 	mov    $0x0,%rdx
    1471:	48 c7 c6 00 00 00 00 	mov    $0x0,%rsi
    1478:	89 c7                	mov    %eax,%edi
    147a:	e8 00 00 00 00       	callq  147f <onic_init_interrupt+0x15f>
    147f:	85 c0                	test   %eax,%eax
    1481:	0f 88 8e 00 00 00    	js     1515 <onic_init_interrupt+0x1f5>
    1487:	f0 41 80 4f 18 02    	lock orb $0x2,0x18(%r15)
    148d:	49 8b 57 20          	mov    0x20(%r15),%rdx
    1491:	31 c0                	xor    %eax,%eax
    1493:	83 e2 01             	and    $0x1,%edx
    1496:	74 a9                	je     1441 <onic_init_interrupt+0x121>
    1498:	48 8b 7d c8          	mov    -0x38(%rbp),%rdi
    149c:	41 83 c4 01          	add    $0x1,%r12d
    14a0:	44 89 e6             	mov    %r12d,%esi
    14a3:	e8 00 00 00 00       	callq  14a8 <onic_init_interrupt+0x188>
    14a8:	31 c9                	xor    %ecx,%ecx
    14aa:	4d 89 f9             	mov    %r15,%r9
    14ad:	49 c7 c0 00 00 00 00 	mov    $0x0,%r8
    14b4:	48 c7 c2 00 00 00 00 	mov    $0x0,%rdx
    14bb:	48 c7 c6 00 00 00 00 	mov    $0x0,%rsi
    14c2:	89 c7                	mov    %eax,%edi
    14c4:	e8 00 00 00 00       	callq  14c9 <onic_init_interrupt+0x1a9>
    14c9:	85 c0                	test   %eax,%eax
    14cb:	78 26                	js     14f3 <onic_init_interrupt+0x1d3>
    14cd:	49 8b bf 10 07 00 00 	mov    0x710(%r15),%rdi
    14d4:	44 89 e6             	mov    %r12d,%esi
    14d7:	e8 00 00 00 00       	callq  14dc <onic_init_interrupt+0x1bc>
    14dc:	f0 41 80 4f 18 01    	lock orb $0x1,0x18(%r15)
    14e2:	31 c0                	xor    %eax,%eax
    14e4:	e9 58 ff ff ff       	jmpq   1441 <onic_init_interrupt+0x121>
    14e9:	b8 f4 ff ff ff       	mov    $0xfffffff4,%eax
    14ee:	e9 40 ff ff ff       	jmpq   1433 <onic_init_interrupt+0x113>
    14f3:	48 8b 7d c8          	mov    -0x38(%rbp),%rdi
    14f7:	48 c7 c6 00 00 00 00 	mov    $0x0,%rsi
    14fe:	89 45 d0             	mov    %eax,-0x30(%rbp)
    1501:	48 81 c7 b0 00 00 00 	add    $0xb0,%rdi
    1508:	e8 00 00 00 00       	callq  150d <onic_init_interrupt+0x1ed>
    150d:	8b 45 d0             	mov    -0x30(%rbp),%eax
    1510:	e9 1e ff ff ff       	jmpq   1433 <onic_init_interrupt+0x113>
    1515:	48 8b 7d c8          	mov    -0x38(%rbp),%rdi
    1519:	48 c7 c6 00 00 00 00 	mov    $0x0,%rsi
    1520:	89 45 d0             	mov    %eax,-0x30(%rbp)
    1523:	48 81 c7 b0 00 00 00 	add    $0xb0,%rdi
    152a:	e8 00 00 00 00       	callq  152f <onic_init_interrupt+0x20f>
    152f:	8b 45 d0             	mov    -0x30(%rbp),%eax
    1532:	e9 fc fe ff ff       	jmpq   1433 <onic_init_interrupt+0x113>
    1537:	66 0f 1f 84 00 00 00 	nopw   0x0(%rax,%rax,1)
    153e:	00 00 

0000000000001540 <onic_clear_rx_queue>:
    1540:	e8 00 00 00 00       	callq  1545 <onic_clear_rx_queue+0x5>
    1545:	55                   	push   %rbp
    1546:	0f b7 c6             	movzwl %si,%eax
    1549:	48 89 e5             	mov    %rsp,%rbp
    154c:	41 56                	push   %r14
    154e:	41 55                	push   %r13
    1550:	4c 8d 2c c7          	lea    (%rdi,%rax,8),%r13
    1554:	41 54                	push   %r12
    1556:	53                   	push   %rbx
    1557:	49 8b 9d 08 05 00 00 	mov    0x508(%r13),%rbx
    155e:	48 85 db             	test   %rbx,%rbx
    1561:	0f 84 a8 00 00 00    	je     160f <onic_clear_rx_queue+0xcf>
    1567:	49 89 fc             	mov    %rdi,%r12
    156a:	48 8b bf 10 07 00 00 	mov    0x710(%rdi),%rdi
    1571:	0f b7 d6             	movzwl %si,%edx
    1574:	4c 8d 73 70          	lea    0x70(%rbx),%r14
    1578:	89 d6                	mov    %edx,%esi
    157a:	e8 00 00 00 00       	callq  157f <onic_clear_rx_queue+0x3f>
    157f:	4c 89 f7             	mov    %r14,%rdi
    1582:	e8 00 00 00 00       	callq  1587 <onic_clear_rx_queue+0x47>
    1587:	4c 89 f7             	mov    %r14,%rdi
    158a:	e8 00 00 00 00       	callq  158f <onic_clear_rx_queue+0x4f>
    158f:	48 8b 53 20          	mov    0x20(%rbx),%rdx
    1593:	48 85 d2             	test   %rdx,%rdx
    1596:	74 29                	je     15c1 <onic_clear_rx_queue+0x81>
    1598:	0f b7 43 18          	movzwl 0x18(%rbx),%eax
    159c:	48 8b 4b 30          	mov    0x30(%rbx),%rcx
    15a0:	45 31 c0             	xor    %r8d,%r8d
    15a3:	8d 34 c5 ff 0f 00 00 	lea    0xfff(,%rax,8),%esi
    15aa:	49 8b 44 24 10       	mov    0x10(%r12),%rax
    15af:	81 e6 00 f0 0f 00    	and    $0xff000,%esi
    15b5:	48 8d b8 b0 00 00 00 	lea    0xb0(%rax),%rdi
    15bc:	e8 00 00 00 00       	callq  15c1 <onic_clear_rx_queue+0x81>
    15c1:	48 8b 53 48          	mov    0x48(%rbx),%rdx
    15c5:	48 85 d2             	test   %rdx,%rdx
    15c8:	74 29                	je     15f3 <onic_clear_rx_queue+0xb3>
    15ca:	0f b7 43 40          	movzwl 0x40(%rbx),%eax
    15ce:	49 8b 7c 24 10       	mov    0x10(%r12),%rdi
    15d3:	45 31 c0             	xor    %r8d,%r8d
    15d6:	48 8b 4b 58          	mov    0x58(%rbx),%rcx
    15da:	48 81 c7 b0 00 00 00 	add    $0xb0,%rdi
    15e1:	8d 34 c5 ff 0f 00 00 	lea    0xfff(,%rax,8),%esi
    15e8:	81 e6 00 f0 0f 00    	and    $0xff000,%esi
    15ee:	e8 00 00 00 00       	callq  15f3 <onic_clear_rx_queue+0xb3>
    15f3:	48 8b 7b 10          	mov    0x10(%rbx),%rdi
    15f7:	e8 00 00 00 00       	callq  15fc <onic_clear_rx_queue+0xbc>
    15fc:	48 89 df             	mov    %rbx,%rdi
    15ff:	e8 00 00 00 00       	callq  1604 <onic_clear_rx_queue+0xc4>
    1604:	49 c7 85 08 05 00 00 	movq   $0x0,0x508(%r13)
    160b:	00 00 00 00 
    160f:	5b                   	pop    %rbx
    1610:	41 5c                	pop    %r12
    1612:	41 5d                	pop    %r13
    1614:	41 5e                	pop    %r14
    1616:	5d                   	pop    %rbp
    1617:	c3                   	retq   
    1618:	0f 1f 84 00 00 00 00 	nopl   0x0(%rax,%rax,1)
    161f:	00 

0000000000001620 <onic_tx_clean>:
    1620:	e8 00 00 00 00       	callq  1625 <onic_tx_clean+0x5>
    1625:	55                   	push   %rbp
    1626:	48 89 e5             	mov    %rsp,%rbp
    1629:	41 57                	push   %r15
    162b:	41 56                	push   %r14
    162d:	41 55                	push   %r13
    162f:	41 54                	push   %r12
    1631:	53                   	push   %rbx
    1632:	48 83 ec 10          	sub    $0x10,%rsp
    1636:	4c 8b 37             	mov    (%rdi),%r14
    1639:	65 48 8b 04 25 28 00 	mov    %gs:0x28,%rax
    1640:	00 00 
    1642:	48 89 45 d0          	mov    %rax,-0x30(%rbp)
    1646:	31 c0                	xor    %eax,%eax
    1648:	f0 48 0f ba 6f 10 00 	lock btsq $0x0,0x10(%rdi)
    164f:	73 22                	jae    1673 <onic_tx_clean+0x53>
    1651:	48 8b 45 d0          	mov    -0x30(%rbp),%rax
    1655:	65 48 33 04 25 28 00 	xor    %gs:0x28,%rax
    165c:	00 00 
    165e:	0f 85 05 01 00 00    	jne    1769 <onic_tx_clean+0x149>
    1664:	48 83 c4 10          	add    $0x10,%rsp
    1668:	5b                   	pop    %rbx
    1669:	41 5c                	pop    %r12
    166b:	41 5d                	pop    %r13
    166d:	41 5e                	pop    %r14
    166f:	41 5f                	pop    %r15
    1671:	5d                   	pop    %rbp
    1672:	c3                   	retq   
    1673:	48 8b 77 30          	mov    0x30(%rdi),%rsi
    1677:	48 89 fb             	mov    %rdi,%rbx
    167a:	48 8d 7d cc          	lea    -0x34(%rbp),%rdi
    167e:	e8 00 00 00 00       	callq  1683 <onic_tx_clean+0x63>
    1683:	44 0f b7 65 ce       	movzwl -0x32(%rbp),%r12d
    1688:	0f b7 4b 42          	movzwl 0x42(%rbx),%ecx
    168c:	66 41 39 cc          	cmp    %cx,%r12w
    1690:	0f 84 91 00 00 00    	je     1727 <onic_tx_clean+0x107>
    1696:	0f b7 c1             	movzwl %cx,%eax
    1699:	41 29 c4             	sub    %eax,%r12d
    169c:	0f 88 af 00 00 00    	js     1751 <onic_tx_clean+0x131>
    16a2:	45 31 ed             	xor    %r13d,%r13d
    16a5:	45 85 e4             	test   %r12d,%r12d
    16a8:	7e 7d                	jle    1727 <onic_tx_clean+0x107>
    16aa:	48 8b 43 18          	mov    0x18(%rbx),%rax
    16ae:	48 c1 e1 05          	shl    $0x5,%rcx
    16b2:	48 01 c8             	add    %rcx,%rax
    16b5:	4c 8b 38             	mov    (%rax),%r15
    16b8:	8b 50 10             	mov    0x10(%rax),%edx
    16bb:	48 8b 70 08          	mov    0x8(%rax),%rsi
    16bf:	49 8b 86 d0 08 00 00 	mov    0x8d0(%r14),%rax
    16c6:	48 8d b8 b0 00 00 00 	lea    0xb0(%rax),%rdi
    16cd:	48 8b 80 d8 02 00 00 	mov    0x2d8(%rax),%rax
    16d4:	48 85 c0             	test   %rax,%rax
    16d7:	74 58                	je     1731 <onic_tx_clean+0x111>
    16d9:	48 8b 40 28          	mov    0x28(%rax),%rax
    16dd:	48 85 c0             	test   %rax,%rax
    16e0:	74 0d                	je     16ef <onic_tx_clean+0xcf>
    16e2:	45 31 c0             	xor    %r8d,%r8d
    16e5:	b9 01 00 00 00       	mov    $0x1,%ecx
    16ea:	e8 00 00 00 00       	callq  16ef <onic_tx_clean+0xcf>
    16ef:	be 01 00 00 00       	mov    $0x1,%esi
    16f4:	4c 89 ff             	mov    %r15,%rdi
    16f7:	e8 00 00 00 00       	callq  16fc <onic_tx_clean+0xdc>
    16fc:	48 83 7b 30 00       	cmpq   $0x0,0x30(%rbx)
    1701:	0f b7 4b 20          	movzwl 0x20(%rbx),%ecx
    1705:	0f b7 43 42          	movzwl 0x42(%rbx),%eax
    1709:	74 41                	je     174c <onic_tx_clean+0x12c>
    170b:	83 e9 01             	sub    $0x1,%ecx
    170e:	83 c0 01             	add    $0x1,%eax
    1711:	0f b7 c9             	movzwl %cx,%ecx
    1714:	99                   	cltd   
    1715:	41 83 c5 01          	add    $0x1,%r13d
    1719:	f7 f9                	idiv   %ecx
    171b:	45 39 ec             	cmp    %r13d,%r12d
    171e:	0f b7 ca             	movzwl %dx,%ecx
    1721:	66 89 53 42          	mov    %dx,0x42(%rbx)
    1725:	75 83                	jne    16aa <onic_tx_clean+0x8a>
    1727:	f0 80 63 10 fe       	lock andb $0xfe,0x10(%rbx)
    172c:	e9 20 ff ff ff       	jmpq   1651 <onic_tx_clean+0x31>
    1731:	48 8b 05 00 00 00 00 	mov    0x0(%rip),%rax        # 1738 <onic_tx_clean+0x118>
    1738:	48 85 c0             	test   %rax,%rax
    173b:	75 9c                	jne    16d9 <onic_tx_clean+0xb9>
    173d:	45 31 c0             	xor    %r8d,%r8d
    1740:	b9 01 00 00 00       	mov    $0x1,%ecx
    1745:	e8 00 00 00 00       	callq  174a <onic_tx_clean+0x12a>
    174a:	eb a3                	jmp    16ef <onic_tx_clean+0xcf>
    174c:	83 c0 01             	add    $0x1,%eax
    174f:	eb c3                	jmp    1714 <onic_tx_clean+0xf4>
    1751:	48 83 7b 30 01       	cmpq   $0x1,0x30(%rbx)
    1756:	0f b7 43 20          	movzwl 0x20(%rbx),%eax
    175a:	66 83 d0 ff          	adc    $0xffff,%ax
    175e:	0f b7 c0             	movzwl %ax,%eax
    1761:	41 01 c4             	add    %eax,%r12d
    1764:	e9 39 ff ff ff       	jmpq   16a2 <onic_tx_clean+0x82>
    1769:	e8 00 00 00 00       	callq  176e <onic_tx_clean+0x14e>
    176e:	66 90                	xchg   %ax,%ax

0000000000001770 <onic_rx_poll>:
    1770:	e8 00 00 00 00       	callq  1775 <onic_rx_poll+0x5>
    1775:	55                   	push   %rbp
    1776:	48 89 e5             	mov    %rsp,%rbp
    1779:	41 57                	push   %r15
    177b:	41 56                	push   %r14
    177d:	41 55                	push   %r13
    177f:	41 54                	push   %r12
    1781:	49 89 ff             	mov    %rdi,%r15
    1784:	53                   	push   %rbx
    1785:	48 83 ec 30          	sub    $0x30,%rsp
    1789:	4c 8b 6f 90          	mov    -0x70(%rdi),%r13
    178d:	89 75 ac             	mov    %esi,-0x54(%rbp)
    1790:	65 48 8b 04 25 28 00 	mov    %gs:0x28,%rax
    1797:	00 00 
    1799:	48 89 45 d0          	mov    %rax,-0x30(%rbp)
    179d:	31 c0                	xor    %eax,%eax
    179f:	0f b7 47 98          	movzwl -0x68(%rdi),%eax
    17a3:	66 41 83 bd ee 08 00 	cmpw   $0x0,0x8ee(%r13)
    17aa:	00 00 
    17ac:	66 89 45 a8          	mov    %ax,-0x58(%rbp)
    17b0:	74 24                	je     17d6 <onic_rx_poll+0x66>
    17b2:	bb 01 00 00 00       	mov    $0x1,%ebx
    17b7:	49 8b bc dd c0 0b 00 	mov    0xbc0(%r13,%rbx,8),%rdi
    17be:	00 
    17bf:	e8 5c fe ff ff       	callq  1620 <onic_tx_clean>
    17c4:	41 0f b7 95 ee 08 00 	movzwl 0x8ee(%r13),%edx
    17cb:	00 
    17cc:	89 d8                	mov    %ebx,%eax
    17ce:	48 83 c3 01          	add    $0x1,%rbx
    17d2:	39 c2                	cmp    %eax,%edx
    17d4:	7f e1                	jg     17b7 <onic_rx_poll+0x47>
    17d6:	41 0f b7 57 d0       	movzwl -0x30(%r15),%edx
    17db:	41 0f b7 77 f2       	movzwl -0xe(%r15),%esi
    17e0:	48 8d 7d c4          	lea    -0x3c(%rbp),%rdi
    17e4:	49 8b 47 d8          	mov    -0x28(%r15),%rax
    17e8:	8d 1c d5 f8 ff ff ff 	lea    -0x8(,%rdx,8),%ebx
    17ef:	c1 e6 03             	shl    $0x3,%esi
    17f2:	48 63 f6             	movslq %esi,%rsi
    17f5:	48 01 c6             	add    %rax,%rsi
    17f8:	48 63 db             	movslq %ebx,%rbx
    17fb:	48 01 c3             	add    %rax,%rbx
    17fe:	e8 00 00 00 00       	callq  1803 <onic_rx_poll+0x93>
    1803:	48 8d 7d ca          	lea    -0x36(%rbp),%rdi
    1807:	48 89 de             	mov    %rbx,%rsi
    180a:	e8 00 00 00 00       	callq  180f <onic_rx_poll+0x9f>
    180f:	80 7d c5 01          	cmpb   $0x1,-0x3b(%rbp)
    1813:	0f 84 15 03 00 00    	je     1b2e <onic_rx_poll+0x3be>
    1819:	41 0f b7 47 f2       	movzwl -0xe(%r15),%eax
    181e:	c7 45 bc 00 00 00 00 	movl   $0x0,-0x44(%rbp)
    1825:	66 39 45 ca          	cmp    %ax,-0x36(%rbp)
    1829:	0f 84 b8 02 00 00    	je     1ae7 <onic_rx_poll+0x377>
    182f:	0f b7 45 a8          	movzwl -0x58(%rbp),%eax
    1833:	83 c0 01             	add    $0x1,%eax
    1836:	66 89 45 aa          	mov    %ax,-0x56(%rbp)
    183a:	e9 e4 00 00 00       	jmpq   1923 <onic_rx_poll+0x1b3>
    183f:	45 0f b7 c2          	movzwl %r10w,%r8d
    1843:	89 c8                	mov    %ecx,%eax
    1845:	44 29 c0             	sub    %r8d,%eax
    1848:	66 44 39 d7          	cmp    %r10w,%di
    184c:	73 14                	jae    1862 <onic_rx_poll+0xf2>
    184e:	49 83 7f b8 00       	cmpq   $0x0,-0x48(%r15)
    1853:	41 0f b7 57 a8       	movzwl -0x58(%r15),%edx
    1858:	74 03                	je     185d <onic_rx_poll+0xed>
    185a:	83 ea 01             	sub    $0x1,%edx
    185d:	0f b7 d2             	movzwl %dx,%edx
    1860:	01 d0                	add    %edx,%eax
    1862:	83 f8 7f             	cmp    $0x7f,%eax
    1865:	7f 3c                	jg     18a3 <onic_rx_poll+0x133>
    1867:	0f 1f 44 00 00       	nopl   0x0(%rax,%rax,1)
    186c:	49 83 7f b8 00       	cmpq   $0x0,-0x48(%r15)
    1871:	49 8b 4f 90          	mov    -0x70(%r15),%rcx
    1875:	8d 87 00 01 00 00    	lea    0x100(%rdi),%eax
    187b:	41 0f b7 77 a8       	movzwl -0x58(%r15),%esi
    1880:	74 03                	je     1885 <onic_rx_poll+0x115>
    1882:	83 ee 01             	sub    $0x1,%esi
    1885:	31 d2                	xor    %edx,%edx
    1887:	66 f7 f6             	div    %si
    188a:	41 0f b7 77 98       	movzwl -0x68(%r15),%esi
    188f:	66 41 89 57 c8       	mov    %dx,-0x38(%r15)
    1894:	48 8b b9 d0 0f 00 00 	mov    0xfd0(%rcx),%rdi
    189b:	0f b7 d2             	movzwl %dx,%edx
    189e:	e8 00 00 00 00       	callq  18a3 <onic_rx_poll+0x133>
    18a3:	49 83 7f e0 00       	cmpq   $0x0,-0x20(%r15)
    18a8:	41 0f b7 4f d0       	movzwl -0x30(%r15),%ecx
    18ad:	74 03                	je     18b2 <onic_rx_poll+0x142>
    18af:	83 e9 01             	sub    $0x1,%ecx
    18b2:	41 0f b7 47 f2       	movzwl -0xe(%r15),%eax
    18b7:	0f b7 c9             	movzwl %cx,%ecx
    18ba:	83 c0 01             	add    $0x1,%eax
    18bd:	99                   	cltd   
    18be:	f7 f9                	idiv   %ecx
    18c0:	41 0f b7 47 f0       	movzwl -0x10(%r15),%eax
    18c5:	83 c0 01             	add    $0x1,%eax
    18c8:	89 d7                	mov    %edx,%edi
    18ca:	89 d6                	mov    %edx,%esi
    18cc:	66 41 89 57 f2       	mov    %dx,-0xe(%r15)
    18d1:	99                   	cltd   
    18d2:	f7 f9                	idiv   %ecx
    18d4:	39 d7                	cmp    %edx,%edi
    18d6:	0f 84 54 01 00 00    	je     1a30 <onic_rx_poll+0x2c0>
    18dc:	41 0f b6 47 f4       	movzbl -0xc(%r15),%eax
    18e1:	38 45 c4             	cmp    %al,-0x3c(%rbp)
    18e4:	74 07                	je     18ed <onic_rx_poll+0x17d>
    18e6:	84 c0                	test   %al,%al
    18e8:	41 0f 94 47 f4       	sete   -0xc(%r15)
    18ed:	48 c1 e6 03          	shl    $0x3,%rsi
    18f1:	83 45 bc 01          	addl   $0x1,-0x44(%rbp)
    18f5:	81 e6 f8 ff 07 00    	and    $0x7fff8,%esi
    18fb:	8b 45 bc             	mov    -0x44(%rbp),%eax
    18fe:	49 03 77 d8          	add    -0x28(%r15),%rsi
    1902:	3b 45 ac             	cmp    -0x54(%rbp),%eax
    1905:	0f 8d 03 02 00 00    	jge    1b0e <onic_rx_poll+0x39e>
    190b:	48 8d 7d c4          	lea    -0x3c(%rbp),%rdi
    190f:	e8 00 00 00 00       	callq  1914 <onic_rx_poll+0x1a4>
    1914:	0f b7 45 ca          	movzwl -0x36(%rbp),%eax
    1918:	66 41 39 47 f2       	cmp    %ax,-0xe(%r15)
    191d:	0f 84 c4 01 00 00    	je     1ae7 <onic_rx_poll+0x377>
    1923:	41 0f b7 47 ca       	movzwl -0x36(%r15),%eax
    1928:	44 0f b7 45 c6       	movzwl -0x3a(%rbp),%r8d
    192d:	4c 89 ff             	mov    %r15,%rdi
    1930:	48 8d 14 40          	lea    (%rax,%rax,2),%rdx
    1934:	49 8b 47 a0          	mov    -0x60(%r15),%rax
    1938:	44 89 c6             	mov    %r8d,%esi
    193b:	4d 89 c4             	mov    %r8,%r12
    193e:	44 89 45 b8          	mov    %r8d,-0x48(%rbp)
    1942:	4c 8d 14 d0          	lea    (%rax,%rdx,8),%r10
    1946:	ba 20 0a 00 00       	mov    $0xa20,%edx
    194b:	4c 89 55 b0          	mov    %r10,-0x50(%rbp)
    194f:	e8 00 00 00 00       	callq  1954 <onic_rx_poll+0x1e4>
    1954:	48 85 c0             	test   %rax,%rax
    1957:	49 89 c6             	mov    %rax,%r14
    195a:	0f 84 56 01 00 00    	je     1ab6 <onic_rx_poll+0x346>
    1960:	4c 8b 55 b0          	mov    -0x50(%rbp),%r10
    1964:	44 8b 45 b8          	mov    -0x48(%rbp),%r8d
    1968:	4c 89 f7             	mov    %r14,%rdi
    196b:	49 8b 1a             	mov    (%r10),%rbx
    196e:	48 2b 1d 00 00 00 00 	sub    0x0(%rip),%rbx        # 1975 <onic_rx_poll+0x205>
    1975:	44 89 c6             	mov    %r8d,%esi
    1978:	41 8b 42 08          	mov    0x8(%r10),%eax
    197c:	48 c1 fb 06          	sar    $0x6,%rbx
    1980:	48 c1 e3 0c          	shl    $0xc,%rbx
    1984:	48 03 1d 00 00 00 00 	add    0x0(%rip),%rbx        # 198b <onic_rx_poll+0x21b>
    198b:	48 01 c3             	add    %rax,%rbx
    198e:	e8 00 00 00 00       	callq  1993 <onic_rx_poll+0x223>
    1993:	4c 89 e2             	mov    %r12,%rdx
    1996:	48 89 de             	mov    %rbx,%rsi
    1999:	48 89 c7             	mov    %rax,%rdi
    199c:	e8 00 00 00 00       	callq  19a1 <onic_rx_poll+0x231>
    19a1:	49 8b 77 90          	mov    -0x70(%r15),%rsi
    19a5:	4c 89 f7             	mov    %r14,%rdi
    19a8:	e8 00 00 00 00       	callq  19ad <onic_rx_poll+0x23d>
    19ad:	66 41 89 86 b0 00 00 	mov    %ax,0xb0(%r14)
    19b4:	00 
    19b5:	0f b7 45 aa          	movzwl -0x56(%rbp),%eax
    19b9:	4c 89 f6             	mov    %r14,%rsi
    19bc:	41 80 a6 80 00 00 00 	andb   $0x9f,0x80(%r14)
    19c3:	9f 
    19c4:	4c 89 ff             	mov    %r15,%rdi
    19c7:	66 41 89 46 7c       	mov    %ax,0x7c(%r14)
    19cc:	e8 00 00 00 00       	callq  19d1 <onic_rx_poll+0x261>
    19d1:	85 c0                	test   %eax,%eax
    19d3:	0f 88 cb 00 00 00    	js     1aa4 <onic_rx_poll+0x334>
    19d9:	49 83 85 00 09 00 00 	addq   $0x1,0x900(%r13)
    19e0:	01 
    19e1:	4d 01 a5 10 09 00 00 	add    %r12,0x910(%r13)
    19e8:	49 83 7f b8 00       	cmpq   $0x0,-0x48(%r15)
    19ed:	41 0f b7 77 a8       	movzwl -0x58(%r15),%esi
    19f2:	74 03                	je     19f7 <onic_rx_poll+0x287>
    19f4:	83 ee 01             	sub    $0x1,%esi
    19f7:	41 0f b7 47 ca       	movzwl -0x36(%r15),%eax
    19fc:	0f b7 f6             	movzwl %si,%esi
    19ff:	41 0f b7 4f c8       	movzwl -0x38(%r15),%ecx
    1a04:	83 c0 01             	add    $0x1,%eax
    1a07:	89 cf                	mov    %ecx,%edi
    1a09:	99                   	cltd   
    1a0a:	f7 fe                	idiv   %esi
    1a0c:	8d 41 01             	lea    0x1(%rcx),%eax
    1a0f:	41 89 d0             	mov    %edx,%r8d
    1a12:	41 89 d2             	mov    %edx,%r10d
    1a15:	66 41 89 57 ca       	mov    %dx,-0x36(%r15)
    1a1a:	99                   	cltd   
    1a1b:	f7 fe                	idiv   %esi
    1a1d:	41 39 d0             	cmp    %edx,%r8d
    1a20:	0f 85 19 fe ff ff    	jne    183f <onic_rx_poll+0xcf>
    1a26:	0f 1f 44 00 00       	nopl   0x0(%rax,%rax,1)
    1a2b:	e9 0f fe ff ff       	jmpq   183f <onic_rx_poll+0xcf>
    1a30:	0f 1f 44 00 00       	nopl   0x0(%rax,%rax,1)
    1a35:	e9 a2 fe ff ff       	jmpq   18dc <onic_rx_poll+0x16c>
    1a3a:	49 8b 77 90          	mov    -0x70(%r15),%rsi
    1a3e:	48 c7 c7 00 00 00 00 	mov    $0x0,%rdi
    1a45:	48 c7 c2 00 00 00 00 	mov    $0x0,%rdx
    1a4c:	e8 00 00 00 00       	callq  1a51 <onic_rx_poll+0x2e1>
    1a51:	41 0f b7 7f c8       	movzwl -0x38(%r15),%edi
    1a56:	e9 11 fe ff ff       	jmpq   186c <onic_rx_poll+0xfc>
    1a5b:	49 8b 77 90          	mov    -0x70(%r15),%rsi
    1a5f:	48 c7 c7 00 00 00 00 	mov    $0x0,%rdi
    1a66:	48 c7 c2 00 00 00 00 	mov    $0x0,%rdx
    1a6d:	e8 00 00 00 00       	callq  1a72 <onic_rx_poll+0x302>
    1a72:	41 0f b7 4f c8       	movzwl -0x38(%r15),%ecx
    1a77:	45 0f b7 57 ca       	movzwl -0x36(%r15),%r10d
    1a7c:	89 cf                	mov    %ecx,%edi
    1a7e:	e9 bc fd ff ff       	jmpq   183f <onic_rx_poll+0xcf>
    1a83:	49 8b 77 90          	mov    -0x70(%r15),%rsi
    1a87:	48 c7 c2 00 00 00 00 	mov    $0x0,%rdx
    1a8e:	48 c7 c7 00 00 00 00 	mov    $0x0,%rdi
    1a95:	e8 00 00 00 00       	callq  1a9a <onic_rx_poll+0x32a>
    1a9a:	41 0f b7 77 f2       	movzwl -0xe(%r15),%esi
    1a9f:	e9 38 fe ff ff       	jmpq   18dc <onic_rx_poll+0x16c>
    1aa4:	49 8b 7f 90          	mov    -0x70(%r15),%rdi
    1aa8:	89 c2                	mov    %eax,%edx
    1aaa:	48 c7 c6 00 00 00 00 	mov    $0x0,%rsi
    1ab1:	e8 00 00 00 00       	callq  1ab6 <onic_rx_poll+0x346>
    1ab6:	41 0f b7 47 f2       	movzwl -0xe(%r15),%eax
    1abb:	66 3b 45 ca          	cmp    -0x36(%rbp),%ax
    1abf:	74 26                	je     1ae7 <onic_rx_poll+0x377>
    1ac1:	66 85 c0             	test   %ax,%ax
    1ac4:	74 21                	je     1ae7 <onic_rx_poll+0x377>
    1ac6:	48 8b 4d d0          	mov    -0x30(%rbp),%rcx
    1aca:	65 48 33 0c 25 28 00 	xor    %gs:0x28,%rcx
    1ad1:	00 00 
    1ad3:	8b 45 bc             	mov    -0x44(%rbp),%eax
    1ad6:	75 67                	jne    1b3f <onic_rx_poll+0x3cf>
    1ad8:	48 83 c4 30          	add    $0x30,%rsp
    1adc:	5b                   	pop    %rbx
    1add:	41 5c                	pop    %r12
    1adf:	41 5d                	pop    %r13
    1ae1:	41 5e                	pop    %r14
    1ae3:	41 5f                	pop    %r15
    1ae5:	5d                   	pop    %rbp
    1ae6:	c3                   	retq   
    1ae7:	8b 75 bc             	mov    -0x44(%rbp),%esi
    1aea:	4c 89 ff             	mov    %r15,%rdi
    1aed:	e8 00 00 00 00       	callq  1af2 <onic_rx_poll+0x382>
    1af2:	41 0f b7 57 f2       	movzwl -0xe(%r15),%edx
    1af7:	0f b7 75 a8          	movzwl -0x58(%rbp),%esi
    1afb:	b9 01 00 00 00       	mov    $0x1,%ecx
    1b00:	49 8b bd d0 0f 00 00 	mov    0xfd0(%r13),%rdi
    1b07:	e8 00 00 00 00       	callq  1b0c <onic_rx_poll+0x39c>
    1b0c:	eb b8                	jmp    1ac6 <onic_rx_poll+0x356>
    1b0e:	31 f6                	xor    %esi,%esi
    1b10:	4c 89 ff             	mov    %r15,%rdi
    1b13:	e8 00 00 00 00       	callq  1b18 <onic_rx_poll+0x3a8>
    1b18:	4c 89 ff             	mov    %r15,%rdi
    1b1b:	e8 00 00 00 00       	callq  1b20 <onic_rx_poll+0x3b0>
    1b20:	84 c0                	test   %al,%al
    1b22:	74 a2                	je     1ac6 <onic_rx_poll+0x356>
    1b24:	4c 89 ff             	mov    %r15,%rdi
    1b27:	e8 00 00 00 00       	callq  1b2c <onic_rx_poll+0x3bc>
    1b2c:	eb 98                	jmp    1ac6 <onic_rx_poll+0x356>
    1b2e:	49 8b bd d0 0f 00 00 	mov    0xfd0(%r13),%rdi
    1b35:	e8 00 00 00 00       	callq  1b3a <onic_rx_poll+0x3ca>
    1b3a:	e9 da fc ff ff       	jmpq   1819 <onic_rx_poll+0xa9>
    1b3f:	e8 00 00 00 00       	callq  1b44 <onic_rx_poll+0x3d4>
    1b44:	66 90                	xchg   %ax,%ax
    1b46:	66 2e 0f 1f 84 00 00 	nopw   %cs:0x0(%rax,%rax,1)
    1b4d:	00 00 00 

0000000000001b50 <onic_open_netdev>:
    1b50:	e8 00 00 00 00       	callq  1b55 <onic_open_netdev+0x5>
    1b55:	55                   	push   %rbp
    1b56:	48 89 e5             	mov    %rsp,%rbp
    1b59:	41 57                	push   %r15
    1b5b:	41 56                	push   %r14
    1b5d:	41 55                	push   %r13
    1b5f:	41 54                	push   %r12
    1b61:	49 89 fe             	mov    %rdi,%r14
    1b64:	53                   	push   %rbx
    1b65:	48 83 ec 58          	sub    $0x58,%rsp
    1b69:	65 48 8b 04 25 28 00 	mov    %gs:0x28,%rax
    1b70:	00 00 
    1b72:	48 89 45 d0          	mov    %rax,-0x30(%rbp)
    1b76:	31 c0                	xor    %eax,%eax
    1b78:	48 8d 87 c0 08 00 00 	lea    0x8c0(%rdi),%rax
    1b7f:	66 83 bf ee 08 00 00 	cmpw   $0x0,0x8ee(%rdi)
    1b86:	00 
    1b87:	48 89 45 90          	mov    %rax,-0x70(%rbp)
    1b8b:	48 8b 87 f8 08 00 00 	mov    0x8f8(%rdi),%rax
    1b92:	48 89 45 88          	mov    %rax,-0x78(%rbp)
    1b96:	0f 84 8d 07 00 00    	je     2329 <onic_open_netdev+0x7d9>
    1b9c:	45 31 e4             	xor    %r12d,%r12d
    1b9f:	49 89 c5             	mov    %rax,%r13
    1ba2:	eb 57                	jmp    1bfb <onic_open_netdev+0xab>
    1ba4:	0f b7 55 98          	movzwl -0x68(%rbp),%edx
    1ba8:	49 8b 47 38          	mov    0x38(%r15),%rax
    1bac:	44 89 e6             	mov    %r12d,%esi
    1baf:	49 8b be d0 0f 00 00 	mov    0xfd0(%r14),%rdi
    1bb6:	c6 45 b0 00          	movb   $0x0,-0x50(%rbp)
    1bba:	48 89 45 b8          	mov    %rax,-0x48(%rbp)
    1bbe:	66 89 55 c0          	mov    %dx,-0x40(%rbp)
    1bc2:	48 8d 55 b0          	lea    -0x50(%rbp),%rdx
    1bc6:	e8 00 00 00 00       	callq  1bcb <onic_open_netdev+0x7b>
    1bcb:	85 c0                	test   %eax,%eax
    1bcd:	0f 88 21 02 00 00    	js     1df4 <onic_open_netdev+0x2a4>
    1bd3:	4f 89 bc e6 c8 0b 00 	mov    %r15,0xbc8(%r14,%r12,8)
    1bda:	00 
    1bdb:	41 0f b7 96 ee 08 00 	movzwl 0x8ee(%r14),%edx
    1be2:	00 
    1be3:	41 8d 44 24 01       	lea    0x1(%r12),%eax
    1be8:	49 83 c4 01          	add    $0x1,%r12
    1bec:	4d 8b ae f8 08 00 00 	mov    0x8f8(%r14),%r13
    1bf3:	39 c2                	cmp    %eax,%edx
    1bf5:	0f 8e 01 02 00 00    	jle    1dfc <onic_open_netdev+0x2ac>
    1bfb:	4f 8b bc e6 c8 0b 00 	mov    0xbc8(%r14,%r12,8),%r15
    1c02:	00 
    1c03:	44 89 65 a4          	mov    %r12d,-0x5c(%rbp)
    1c07:	44 89 e3             	mov    %r12d,%ebx
    1c0a:	4d 85 ff             	test   %r15,%r15
    1c0d:	74 63                	je     1c72 <onic_open_netdev+0x122>
    1c0f:	49 8b be d0 0f 00 00 	mov    0xfd0(%r14),%rdi
    1c16:	44 89 e6             	mov    %r12d,%esi
    1c19:	e8 00 00 00 00       	callq  1c1e <onic_open_netdev+0xce>
    1c1e:	49 8b 57 28          	mov    0x28(%r15),%rdx
    1c22:	48 85 d2             	test   %rdx,%rdx
    1c25:	74 2e                	je     1c55 <onic_open_netdev+0x105>
    1c27:	41 0f b7 47 20       	movzwl 0x20(%r15),%eax
    1c2c:	49 8b 4f 38          	mov    0x38(%r15),%rcx
    1c30:	45 31 c0             	xor    %r8d,%r8d
    1c33:	c1 e0 04             	shl    $0x4,%eax
    1c36:	8d b0 f7 0f 00 00    	lea    0xff7(%rax),%esi
    1c3c:	49 8b 86 d0 08 00 00 	mov    0x8d0(%r14),%rax
    1c43:	81 e6 00 f0 1f 00    	and    $0x1ff000,%esi
    1c49:	48 8d b8 b0 00 00 00 	lea    0xb0(%rax),%rdi
    1c50:	e8 00 00 00 00       	callq  1c55 <onic_open_netdev+0x105>
    1c55:	49 8b 7f 18          	mov    0x18(%r15),%rdi
    1c59:	e8 00 00 00 00       	callq  1c5e <onic_open_netdev+0x10e>
    1c5e:	4c 89 ff             	mov    %r15,%rdi
    1c61:	e8 00 00 00 00       	callq  1c66 <onic_open_netdev+0x116>
    1c66:	4b c7 84 e6 c8 0b 00 	movq   $0x0,0xbc8(%r14,%r12,8)
    1c6d:	00 00 00 00 00 
    1c72:	48 8b 3d 00 00 00 00 	mov    0x0(%rip),%rdi        # 1c79 <onic_open_netdev+0x129>
    1c79:	ba 50 00 00 00       	mov    $0x50,%edx
    1c7e:	be c0 0d 00 00       	mov    $0xdc0,%esi
    1c83:	e8 00 00 00 00       	callq  1c88 <onic_open_netdev+0x138>
    1c88:	48 85 c0             	test   %rax,%rax
    1c8b:	49 89 c7             	mov    %rax,%r15
    1c8e:	0f 84 e8 05 00 00    	je     227c <onic_open_netdev+0x72c>
    1c94:	89 d8                	mov    %ebx,%eax
    1c96:	31 d2                	xor    %edx,%edx
    1c98:	31 ff                	xor    %edi,%edi
    1c9a:	66 41 f7 b6 ec 08 00 	divw   0x8ec(%r14)
    1ca1:	00 
    1ca2:	4d 89 2f             	mov    %r13,(%r15)
    1ca5:	66 41 89 5f 08       	mov    %bx,0x8(%r15)
    1caa:	0f b7 c2             	movzwl %dx,%eax
    1cad:	66 89 55 98          	mov    %dx,-0x68(%rbp)
    1cb1:	49 8b 84 c6 c8 09 00 	mov    0x9c8(%r14,%rax,8),%rax
    1cb8:	00 
    1cb9:	49 89 47 48          	mov    %rax,0x48(%r15)
    1cbd:	e8 00 00 00 00       	callq  1cc2 <onic_open_netdev+0x172>
    1cc2:	66 41 89 47 20       	mov    %ax,0x20(%r15)
    1cc7:	0f b7 c0             	movzwl %ax,%eax
    1cca:	49 8d 57 38          	lea    0x38(%r15),%rdx
    1cce:	8d 58 ff             	lea    -0x1(%rax),%ebx
    1cd1:	49 8b 86 d0 08 00 00 	mov    0x8d0(%r14),%rax
    1cd8:	45 31 c0             	xor    %r8d,%r8d
    1cdb:	b9 c0 0c 00 00       	mov    $0xcc0,%ecx
    1ce0:	41 89 dd             	mov    %ebx,%r13d
    1ce3:	41 c1 e5 04          	shl    $0x4,%r13d
    1ce7:	48 8d b8 b0 00 00 00 	lea    0xb0(%rax),%rdi
    1cee:	45 8d 9d 07 10 00 00 	lea    0x1007(%r13),%r11d
    1cf5:	41 81 e3 00 f0 ff ff 	and    $0xfffff000,%r11d
    1cfc:	4c 89 de             	mov    %r11,%rsi
    1cff:	4c 89 5d a8          	mov    %r11,-0x58(%rbp)
    1d03:	e8 00 00 00 00       	callq  1d08 <onic_open_netdev+0x1b8>
    1d08:	48 85 c0             	test   %rax,%rax
    1d0b:	49 89 47 28          	mov    %rax,0x28(%r15)
    1d0f:	74 43                	je     1d54 <onic_open_netdev+0x204>
    1d11:	4c 8b 5d a8          	mov    -0x58(%rbp),%r11
    1d15:	31 f6                	xor    %esi,%esi
    1d17:	48 89 c7             	mov    %rax,%rdi
    1d1a:	4c 89 da             	mov    %r11,%rdx
    1d1d:	e8 00 00 00 00       	callq  1d22 <onic_open_netdev+0x1d2>
    1d22:	4d 03 6f 28          	add    0x28(%r15),%r13
    1d26:	89 df                	mov    %ebx,%edi
    1d28:	41 c7 47 40 00 00 00 	movl   $0x0,0x40(%r15)
    1d2f:	00 
    1d30:	48 c1 e7 05          	shl    $0x5,%rdi
    1d34:	41 c6 47 44 00       	movb   $0x0,0x44(%r15)
    1d39:	be c0 0d 00 00       	mov    $0xdc0,%esi
    1d3e:	4d 89 6f 30          	mov    %r13,0x30(%r15)
    1d42:	e8 00 00 00 00       	callq  1d47 <onic_open_netdev+0x1f7>
    1d47:	48 85 c0             	test   %rax,%rax
    1d4a:	49 89 47 18          	mov    %rax,0x18(%r15)
    1d4e:	0f 85 50 fe ff ff    	jne    1ba4 <onic_open_netdev+0x54>
    1d54:	41 bd f4 ff ff ff    	mov    $0xfffffff4,%r13d
    1d5a:	48 63 45 a4          	movslq -0x5c(%rbp),%rax
    1d5e:	49 8d 1c c6          	lea    (%r14,%rax,8),%rbx
    1d62:	48 89 c6             	mov    %rax,%rsi
    1d65:	4c 8b a3 c8 0b 00 00 	mov    0xbc8(%rbx),%r12
    1d6c:	4d 85 e4             	test   %r12,%r12
    1d6f:	74 63                	je     1dd4 <onic_open_netdev+0x284>
    1d71:	49 8b be d0 0f 00 00 	mov    0xfd0(%r14),%rdi
    1d78:	e8 00 00 00 00       	callq  1d7d <onic_open_netdev+0x22d>
    1d7d:	49 8b 54 24 28       	mov    0x28(%r12),%rdx
    1d82:	48 85 d2             	test   %rdx,%rdx
    1d85:	74 30                	je     1db7 <onic_open_netdev+0x267>
    1d87:	41 0f b7 44 24 20    	movzwl 0x20(%r12),%eax
    1d8d:	49 8b 4c 24 38       	mov    0x38(%r12),%rcx
    1d92:	45 31 c0             	xor    %r8d,%r8d
    1d95:	c1 e0 04             	shl    $0x4,%eax
    1d98:	8d b0 f7 0f 00 00    	lea    0xff7(%rax),%esi
    1d9e:	49 8b 86 d0 08 00 00 	mov    0x8d0(%r14),%rax
    1da5:	81 e6 00 f0 1f 00    	and    $0x1ff000,%esi
    1dab:	48 8d b8 b0 00 00 00 	lea    0xb0(%rax),%rdi
    1db2:	e8 00 00 00 00       	callq  1db7 <onic_open_netdev+0x267>
    1db7:	49 8b 7c 24 18       	mov    0x18(%r12),%rdi
    1dbc:	e8 00 00 00 00       	callq  1dc1 <onic_open_netdev+0x271>
    1dc1:	4c 89 e7             	mov    %r12,%rdi
    1dc4:	e8 00 00 00 00       	callq  1dc9 <onic_open_netdev+0x279>
    1dc9:	48 c7 83 c8 0b 00 00 	movq   $0x0,0xbc8(%rbx)
    1dd0:	00 00 00 00 
    1dd4:	8b 5d a4             	mov    -0x5c(%rbp),%ebx
    1dd7:	48 8b 7d 88          	mov    -0x78(%rbp),%rdi
    1ddb:	44 89 e9             	mov    %r13d,%ecx
    1dde:	48 c7 c6 00 00 00 00 	mov    $0x0,%rsi
    1de5:	89 da                	mov    %ebx,%edx
    1de7:	e8 00 00 00 00       	callq  1dec <onic_open_netdev+0x29c>
    1dec:	48 63 c3             	movslq %ebx,%rax
    1def:	e9 b2 05 00 00       	jmpq   23a6 <onic_open_netdev+0x856>
    1df4:	41 89 c5             	mov    %eax,%r13d
    1df7:	e9 5e ff ff ff       	jmpq   1d5a <onic_open_netdev+0x20a>
    1dfc:	4c 89 6d 98          	mov    %r13,-0x68(%rbp)
    1e00:	4c 89 e8             	mov    %r13,%rax
    1e03:	45 31 e4             	xor    %r12d,%r12d
    1e06:	66 41 83 be f0 08 00 	cmpw   $0x0,0x8f0(%r14)
    1e0d:	00 00 
    1e0f:	48 89 45 a8          	mov    %rax,-0x58(%rbp)
    1e13:	0f 84 ce 04 00 00    	je     22e7 <onic_open_netdev+0x797>
    1e19:	4b 83 bc e6 c8 0d 00 	cmpq   $0x0,0xdc8(%r14,%r12,8)
    1e20:	00 00 
    1e22:	44 89 65 a4          	mov    %r12d,-0x5c(%rbp)
    1e26:	74 0c                	je     1e34 <onic_open_netdev+0x2e4>
    1e28:	48 8b 7d 90          	mov    -0x70(%rbp),%rdi
    1e2c:	44 89 e6             	mov    %r12d,%esi
    1e2f:	e8 0c f7 ff ff       	callq  1540 <onic_clear_rx_queue>
    1e34:	48 8b 3d 00 00 00 00 	mov    0x0(%rip),%rdi        # 1e3b <onic_open_netdev+0x2eb>
    1e3b:	ba f8 01 00 00       	mov    $0x1f8,%edx
    1e40:	be c0 0d 00 00       	mov    $0xdc0,%esi
    1e45:	e8 00 00 00 00       	callq  1e4a <onic_open_netdev+0x2fa>
    1e4a:	48 85 c0             	test   %rax,%rax
    1e4d:	48 89 c3             	mov    %rax,%rbx
    1e50:	0f 84 72 02 00 00    	je     20c8 <onic_open_netdev+0x578>
    1e56:	31 d2                	xor    %edx,%edx
    1e58:	44 89 e0             	mov    %r12d,%eax
    1e5b:	bf 0d 00 00 00       	mov    $0xd,%edi
    1e60:	66 41 f7 b6 ec 08 00 	divw   0x8ec(%r14)
    1e67:	00 
    1e68:	48 8b 45 a8          	mov    -0x58(%rbp),%rax
    1e6c:	66 44 89 63 08       	mov    %r12w,0x8(%rbx)
    1e71:	48 89 03             	mov    %rax,(%rbx)
    1e74:	0f b7 c2             	movzwl %dx,%eax
    1e77:	66 89 55 a2          	mov    %dx,-0x5e(%rbp)
    1e7b:	49 8b 84 c6 c8 09 00 	mov    0x9c8(%r14,%rax,8),%rax
    1e82:	00 
    1e83:	48 89 43 68          	mov    %rax,0x68(%rbx)
    1e87:	e8 00 00 00 00       	callq  1e8c <onic_open_netdev+0x33c>
    1e8c:	44 0f b7 f8          	movzwl %ax,%r15d
    1e90:	66 89 43 18          	mov    %ax,0x18(%rbx)
    1e94:	49 8b 86 d0 08 00 00 	mov    0x8d0(%r14),%rax
    1e9b:	45 8d 6f ff          	lea    -0x1(%r15),%r13d
    1e9f:	41 c1 e7 03          	shl    $0x3,%r15d
    1ea3:	48 8d 53 30          	lea    0x30(%rbx),%rdx
    1ea7:	45 8d 8f ff 0f 00 00 	lea    0xfff(%r15),%r9d
    1eae:	45 31 c0             	xor    %r8d,%r8d
    1eb1:	b9 c0 0c 00 00       	mov    $0xcc0,%ecx
    1eb6:	48 8d b8 b0 00 00 00 	lea    0xb0(%rax),%rdi
    1ebd:	41 81 e1 00 f0 0f 00 	and    $0xff000,%r9d
    1ec4:	4c 89 ce             	mov    %r9,%rsi
    1ec7:	4c 89 4d 88          	mov    %r9,-0x78(%rbp)
    1ecb:	e8 00 00 00 00       	callq  1ed0 <onic_open_netdev+0x380>
    1ed0:	48 85 c0             	test   %rax,%rax
    1ed3:	48 89 43 20          	mov    %rax,0x20(%rbx)
    1ed7:	0f 84 df 01 00 00    	je     20bc <onic_open_netdev+0x56c>
    1edd:	4c 8b 4d 88          	mov    -0x78(%rbp),%r9
    1ee1:	31 f6                	xor    %esi,%esi
    1ee3:	48 89 c7             	mov    %rax,%rdi
    1ee6:	4c 89 ca             	mov    %r9,%rdx
    1ee9:	e8 00 00 00 00       	callq  1eee <onic_open_netdev+0x39e>
    1eee:	41 8d 47 f8          	lea    -0x8(%r15),%eax
    1ef2:	48 03 43 20          	add    0x20(%rbx),%rax
    1ef6:	c7 43 38 00 00 00 00 	movl   $0x0,0x38(%rbx)
    1efd:	c6 43 3c 00          	movb   $0x0,0x3c(%rbx)
    1f01:	be c0 0d 00 00       	mov    $0xdc0,%esi
    1f06:	48 89 43 28          	mov    %rax,0x28(%rbx)
    1f0a:	44 89 e8             	mov    %r13d,%eax
    1f0d:	48 8d 3c 40          	lea    (%rax,%rax,2),%rdi
    1f11:	48 c1 e7 03          	shl    $0x3,%rdi
    1f15:	e8 00 00 00 00       	callq  1f1a <onic_open_netdev+0x3ca>
    1f1a:	48 85 c0             	test   %rax,%rax
    1f1d:	48 89 43 10          	mov    %rax,0x10(%rbx)
    1f21:	0f 84 95 01 00 00    	je     20bc <onic_open_netdev+0x56c>
    1f27:	45 85 ed             	test   %r13d,%r13d
    1f2a:	0f 84 2e 02 00 00    	je     215e <onic_open_netdev+0x60e>
    1f30:	45 31 ff             	xor    %r15d,%r15d
    1f33:	eb 28                	jmp    1f5d <onic_open_netdev+0x40d>
    1f35:	49 63 d7             	movslq %r15d,%rdx
    1f38:	48 8b 4b 10          	mov    0x10(%rbx),%rcx
    1f3c:	41 83 c7 01          	add    $0x1,%r15d
    1f40:	48 8d 14 52          	lea    (%rdx,%rdx,2),%rdx
    1f44:	45 39 ef             	cmp    %r13d,%r15d
    1f47:	48 89 04 d1          	mov    %rax,(%rcx,%rdx,8)
    1f4b:	48 8b 43 10          	mov    0x10(%rbx),%rax
    1f4f:	c7 44 d0 08 00 00 00 	movl   $0x0,0x8(%rax,%rdx,8)
    1f56:	00 
    1f57:	0f 84 76 01 00 00    	je     20d3 <onic_open_netdev+0x583>
    1f5d:	31 c9                	xor    %ecx,%ecx
    1f5f:	31 f6                	xor    %esi,%esi
    1f61:	bf 20 2a 06 00       	mov    $0x62a20,%edi
    1f66:	65 8b 15 00 00 00 00 	mov    %gs:0x0(%rip),%edx        # 1f6d <onic_open_netdev+0x41d>
    1f6d:	e8 00 00 00 00       	callq  1f72 <onic_open_netdev+0x422>
    1f72:	48 85 c0             	test   %rax,%rax
    1f75:	75 be                	jne    1f35 <onic_open_netdev+0x3e5>
    1f77:	41 bd f4 ff ff ff    	mov    $0xfffffff4,%r13d
    1f7d:	8b 75 a4             	mov    -0x5c(%rbp),%esi
    1f80:	48 8b 7d 90          	mov    -0x70(%rbp),%rdi
    1f84:	e8 b7 f5 ff ff       	callq  1540 <onic_clear_rx_queue>
    1f89:	8b 5d a4             	mov    -0x5c(%rbp),%ebx
    1f8c:	48 8b 7d 98          	mov    -0x68(%rbp),%rdi
    1f90:	44 89 e9             	mov    %r13d,%ecx
    1f93:	48 c7 c6 00 00 00 00 	mov    $0x0,%rsi
    1f9a:	89 da                	mov    %ebx,%edx
    1f9c:	e8 00 00 00 00       	callq  1fa1 <onic_open_netdev+0x451>
    1fa1:	89 d8                	mov    %ebx,%eax
    1fa3:	8d 5b ff             	lea    -0x1(%rbx),%ebx
    1fa6:	85 c0                	test   %eax,%eax
    1fa8:	74 13                	je     1fbd <onic_open_netdev+0x46d>
    1faa:	48 8b 7d 90          	mov    -0x70(%rbp),%rdi
    1fae:	89 de                	mov    %ebx,%esi
    1fb0:	83 eb 01             	sub    $0x1,%ebx
    1fb3:	e8 88 f5 ff ff       	callq  1540 <onic_clear_rx_queue>
    1fb8:	83 fb ff             	cmp    $0xffffffff,%ebx
    1fbb:	75 ed                	jne    1faa <onic_open_netdev+0x45a>
    1fbd:	4c 89 f7             	mov    %r14,%rdi
    1fc0:	e8 00 00 00 00       	callq  1fc5 <onic_open_netdev+0x475>
    1fc5:	4c 89 f7             	mov    %r14,%rdi
    1fc8:	e8 00 00 00 00       	callq  1fcd <onic_open_netdev+0x47d>
    1fcd:	41 0f b7 8e ee 08 00 	movzwl 0x8ee(%r14),%ecx
    1fd4:	00 
    1fd5:	66 85 c9             	test   %cx,%cx
    1fd8:	0f 84 8f 00 00 00    	je     206d <onic_open_netdev+0x51d>
    1fde:	31 db                	xor    %ebx,%ebx
    1fe0:	4d 8b a4 de c8 0b 00 	mov    0xbc8(%r14,%rbx,8),%r12
    1fe7:	00 
    1fe8:	4d 85 e4             	test   %r12,%r12
    1feb:	74 6e                	je     205b <onic_open_netdev+0x50b>
    1fed:	49 8b be d0 0f 00 00 	mov    0xfd0(%r14),%rdi
    1ff4:	89 de                	mov    %ebx,%esi
    1ff6:	e8 00 00 00 00       	callq  1ffb <onic_open_netdev+0x4ab>
    1ffb:	49 8b 54 24 28       	mov    0x28(%r12),%rdx
    2000:	48 85 d2             	test   %rdx,%rdx
    2003:	74 30                	je     2035 <onic_open_netdev+0x4e5>
    2005:	41 0f b7 44 24 20    	movzwl 0x20(%r12),%eax
    200b:	49 8b 4c 24 38       	mov    0x38(%r12),%rcx
    2010:	45 31 c0             	xor    %r8d,%r8d
    2013:	c1 e0 04             	shl    $0x4,%eax
    2016:	8d b0 f7 0f 00 00    	lea    0xff7(%rax),%esi
    201c:	49 8b 86 d0 08 00 00 	mov    0x8d0(%r14),%rax
    2023:	81 e6 00 f0 1f 00    	and    $0x1ff000,%esi
    2029:	48 8d b8 b0 00 00 00 	lea    0xb0(%rax),%rdi
    2030:	e8 00 00 00 00       	callq  2035 <onic_open_netdev+0x4e5>
    2035:	49 8b 7c 24 18       	mov    0x18(%r12),%rdi
    203a:	e8 00 00 00 00       	callq  203f <onic_open_netdev+0x4ef>
    203f:	4c 89 e7             	mov    %r12,%rdi
    2042:	e8 00 00 00 00       	callq  2047 <onic_open_netdev+0x4f7>
    2047:	49 c7 84 de c8 0b 00 	movq   $0x0,0xbc8(%r14,%rbx,8)
    204e:	00 00 00 00 00 
    2053:	41 0f b7 8e ee 08 00 	movzwl 0x8ee(%r14),%ecx
    205a:	00 
    205b:	8d 43 01             	lea    0x1(%rbx),%eax
    205e:	0f b7 d1             	movzwl %cx,%edx
    2061:	48 83 c3 01          	add    $0x1,%rbx
    2065:	39 c2                	cmp    %eax,%edx
    2067:	0f 8f 73 ff ff ff    	jg     1fe0 <onic_open_netdev+0x490>
    206d:	66 41 83 be f0 08 00 	cmpw   $0x0,0x8f0(%r14)
    2074:	00 00 
    2076:	74 1f                	je     2097 <onic_open_netdev+0x547>
    2078:	4c 8b 65 90          	mov    -0x70(%rbp),%r12
    207c:	31 db                	xor    %ebx,%ebx
    207e:	89 de                	mov    %ebx,%esi
    2080:	4c 89 e7             	mov    %r12,%rdi
    2083:	83 c3 01             	add    $0x1,%ebx
    2086:	e8 b5 f4 ff ff       	callq  1540 <onic_clear_rx_queue>
    208b:	41 0f b7 86 f0 08 00 	movzwl 0x8f0(%r14),%eax
    2092:	00 
    2093:	39 c3                	cmp    %eax,%ebx
    2095:	7c e7                	jl     207e <onic_open_netdev+0x52e>
    2097:	48 8b 4d d0          	mov    -0x30(%rbp),%rcx
    209b:	65 48 33 0c 25 28 00 	xor    %gs:0x28,%rcx
    20a2:	00 00 
    20a4:	44 89 e8             	mov    %r13d,%eax
    20a7:	0f 85 0a 03 00 00    	jne    23b7 <onic_open_netdev+0x867>
    20ad:	48 83 c4 58          	add    $0x58,%rsp
    20b1:	5b                   	pop    %rbx
    20b2:	41 5c                	pop    %r12
    20b4:	41 5d                	pop    %r13
    20b6:	41 5e                	pop    %r14
    20b8:	41 5f                	pop    %r15
    20ba:	5d                   	pop    %rbp
    20bb:	c3                   	retq   
    20bc:	8b 75 a4             	mov    -0x5c(%rbp),%esi
    20bf:	48 8b 7d 90          	mov    -0x70(%rbp),%rdi
    20c3:	e8 78 f4 ff ff       	callq  1540 <onic_clear_rx_queue>
    20c8:	41 bd f4 ff ff ff    	mov    $0xfffffff4,%r13d
    20ce:	e9 b6 fe ff ff       	jmpq   1f89 <onic_open_netdev+0x439>
    20d3:	45 31 ed             	xor    %r13d,%r13d
    20d6:	44 89 7d 88          	mov    %r15d,-0x78(%rbp)
    20da:	4c 89 65 80          	mov    %r12,-0x80(%rbp)
    20de:	45 89 ef             	mov    %r13d,%r15d
    20e1:	49 63 c7             	movslq %r15d,%rax
    20e4:	46 8d 24 fd 00 00 00 	lea    0x0(,%r15,8),%r12d
    20eb:	00 
    20ec:	48 8d 14 40          	lea    (%rax,%rax,2),%rdx
    20f0:	48 8b 43 10          	mov    0x10(%rbx),%rax
    20f4:	4d 63 e4             	movslq %r12d,%r12
    20f7:	4c 03 63 20          	add    0x20(%rbx),%r12
    20fb:	48 8d 04 d0          	lea    (%rax,%rdx,8),%rax
    20ff:	48 8b 30             	mov    (%rax),%rsi
    2102:	44 8b 68 08          	mov    0x8(%rax),%r13d
    2106:	49 8b 86 d0 08 00 00 	mov    0x8d0(%r14),%rax
    210d:	48 8d b8 b0 00 00 00 	lea    0xb0(%rax),%rdi
    2114:	48 8b 80 d8 02 00 00 	mov    0x2d8(%rax),%rax
    211b:	48 85 c0             	test   %rax,%rax
    211e:	0f 84 2e 01 00 00    	je     2252 <onic_open_netdev+0x702>
    2124:	48 8b 40 20          	mov    0x20(%rax),%rax
    2128:	45 31 c9             	xor    %r9d,%r9d
    212b:	41 b8 02 00 00 00    	mov    $0x2,%r8d
    2131:	b9 00 10 00 00       	mov    $0x1000,%ecx
    2136:	31 d2                	xor    %edx,%edx
    2138:	e8 00 00 00 00       	callq  213d <onic_open_netdev+0x5ed>
    213d:	48 8d 75 b0          	lea    -0x50(%rbp),%rsi
    2141:	4c 01 e8             	add    %r13,%rax
    2144:	4c 89 e7             	mov    %r12,%rdi
    2147:	48 89 45 b0          	mov    %rax,-0x50(%rbp)
    214b:	41 83 c7 01          	add    $0x1,%r15d
    214f:	e8 00 00 00 00       	callq  2154 <onic_open_netdev+0x604>
    2154:	44 39 7d 88          	cmp    %r15d,-0x78(%rbp)
    2158:	75 87                	jne    20e1 <onic_open_netdev+0x591>
    215a:	4c 8b 65 80          	mov    -0x80(%rbp),%r12
    215e:	bf 0d 00 00 00       	mov    $0xd,%edi
    2163:	e8 00 00 00 00       	callq  2168 <onic_open_netdev+0x618>
    2168:	66 89 43 40          	mov    %ax,0x40(%rbx)
    216c:	0f b7 c0             	movzwl %ax,%eax
    216f:	48 8d 53 58          	lea    0x58(%rbx),%rdx
    2173:	44 8d 2c c5 00 00 00 	lea    0x0(,%rax,8),%r13d
    217a:	00 
    217b:	49 8b 86 d0 08 00 00 	mov    0x8d0(%r14),%rax
    2182:	45 31 c0             	xor    %r8d,%r8d
    2185:	b9 c0 0c 00 00       	mov    $0xcc0,%ecx
    218a:	45 8d bd ff 0f 00 00 	lea    0xfff(%r13),%r15d
    2191:	48 8d b8 b0 00 00 00 	lea    0xb0(%rax),%rdi
    2198:	41 81 e7 00 f0 0f 00 	and    $0xff000,%r15d
    219f:	4c 89 fe             	mov    %r15,%rsi
    21a2:	e8 00 00 00 00       	callq  21a7 <onic_open_netdev+0x657>
    21a7:	48 85 c0             	test   %rax,%rax
    21aa:	48 89 43 48          	mov    %rax,0x48(%rbx)
    21ae:	0f 84 08 ff ff ff    	je     20bc <onic_open_netdev+0x56c>
    21b4:	31 f6                	xor    %esi,%esi
    21b6:	4c 89 fa             	mov    %r15,%rdx
    21b9:	48 89 c7             	mov    %rax,%rdi
    21bc:	e8 00 00 00 00       	callq  21c1 <onic_open_netdev+0x671>
    21c1:	41 8d 45 f8          	lea    -0x8(%r13),%eax
    21c5:	48 03 43 48          	add    0x48(%rbx),%rax
    21c9:	48 8b 7d a8          	mov    -0x58(%rbp),%rdi
    21cd:	48 8d 73 70          	lea    0x70(%rbx),%rsi
    21d1:	c7 43 60 00 00 00 00 	movl   $0x0,0x60(%rbx)
    21d8:	c6 43 64 01          	movb   $0x1,0x64(%rbx)
    21dc:	b9 40 00 00 00       	mov    $0x40,%ecx
    21e1:	48 c7 c2 00 00 00 00 	mov    $0x0,%rdx
    21e8:	48 89 43 50          	mov    %rax,0x50(%rbx)
    21ec:	e8 00 00 00 00       	callq  21f1 <onic_open_netdev+0x6a1>
    21f1:	48 8b 83 80 00 00 00 	mov    0x80(%rbx),%rax
    21f8:	a8 01                	test   $0x1,%al
    21fa:	0f 84 b5 01 00 00    	je     23b5 <onic_open_netdev+0x865>
    2200:	f0 80 a3 80 00 00 00 	lock andb $0xfe,0x80(%rbx)
    2207:	fe 
    2208:	f0 80 a3 80 00 00 00 	lock andb $0xf7,0x80(%rbx)
    220f:	f7 
    2210:	48 8b 43 30          	mov    0x30(%rbx),%rax
    2214:	44 8b 7d a4          	mov    -0x5c(%rbp),%r15d
    2218:	48 8d 55 b0          	lea    -0x50(%rbp),%rdx
    221c:	49 8b be d0 0f 00 00 	mov    0xfd0(%r14),%rdi
    2223:	c7 45 b0 0d 0d 0d 00 	movl   $0xd0d0d,-0x50(%rbp)
    222a:	48 89 45 b8          	mov    %rax,-0x48(%rbp)
    222e:	48 8b 43 58          	mov    0x58(%rbx),%rax
    2232:	44 89 fe             	mov    %r15d,%esi
    2235:	48 89 45 c0          	mov    %rax,-0x40(%rbp)
    2239:	0f b7 45 a2          	movzwl -0x5e(%rbp),%eax
    223d:	66 89 45 c8          	mov    %ax,-0x38(%rbp)
    2241:	e8 00 00 00 00       	callq  2246 <onic_open_netdev+0x6f6>
    2246:	85 c0                	test   %eax,%eax
    2248:	79 3d                	jns    2287 <onic_open_netdev+0x737>
    224a:	41 89 c5             	mov    %eax,%r13d
    224d:	e9 2b fd ff ff       	jmpq   1f7d <onic_open_netdev+0x42d>
    2252:	48 8b 05 00 00 00 00 	mov    0x0(%rip),%rax        # 2259 <onic_open_netdev+0x709>
    2259:	48 85 c0             	test   %rax,%rax
    225c:	0f 85 c2 fe ff ff    	jne    2124 <onic_open_netdev+0x5d4>
    2262:	45 31 c9             	xor    %r9d,%r9d
    2265:	41 b8 02 00 00 00    	mov    $0x2,%r8d
    226b:	b9 00 10 00 00       	mov    $0x1000,%ecx
    2270:	31 d2                	xor    %edx,%edx
    2272:	e8 00 00 00 00       	callq  2277 <onic_open_netdev+0x727>
    2277:	e9 c1 fe ff ff       	jmpq   213d <onic_open_netdev+0x5ed>
    227c:	41 bd f4 ff ff ff    	mov    $0xfffffff4,%r13d
    2282:	e9 4d fb ff ff       	jmpq   1dd4 <onic_open_netdev+0x284>
    2287:	49 8b be d0 0f 00 00 	mov    0xfd0(%r14),%rdi
    228e:	ba 00 01 00 00       	mov    $0x100,%edx
    2293:	44 89 fe             	mov    %r15d,%esi
    2296:	66 89 53 38          	mov    %dx,0x38(%rbx)
    229a:	ba 00 01 00 00       	mov    $0x100,%edx
    229f:	e8 00 00 00 00       	callq  22a4 <onic_open_netdev+0x754>
    22a4:	49 8b be d0 0f 00 00 	mov    0xfd0(%r14),%rdi
    22ab:	31 d2                	xor    %edx,%edx
    22ad:	b9 01 00 00 00       	mov    $0x1,%ecx
    22b2:	44 89 fe             	mov    %r15d,%esi
    22b5:	e8 00 00 00 00       	callq  22ba <onic_open_netdev+0x76a>
    22ba:	4b 89 9c e6 c8 0d 00 	mov    %rbx,0xdc8(%r14,%r12,8)
    22c1:	00 
    22c2:	41 0f b7 96 f0 08 00 	movzwl 0x8f0(%r14),%edx
    22c9:	00 
    22ca:	41 8d 44 24 01       	lea    0x1(%r12),%eax
    22cf:	49 83 c4 01          	add    $0x1,%r12
    22d3:	39 c2                	cmp    %eax,%edx
    22d5:	7e 10                	jle    22e7 <onic_open_netdev+0x797>
    22d7:	49 8b 86 f8 08 00 00 	mov    0x8f8(%r14),%rax
    22de:	48 89 45 a8          	mov    %rax,-0x58(%rbp)
    22e2:	e9 32 fb ff ff       	jmpq   1e19 <onic_open_netdev+0x2c9>
    22e7:	41 8b 86 c8 03 00 00 	mov    0x3c8(%r14),%eax
    22ee:	31 d2                	xor    %edx,%edx
    22f0:	85 c0                	test   %eax,%eax
    22f2:	74 25                	je     2319 <onic_open_netdev+0x7c9>
    22f4:	89 d0                	mov    %edx,%eax
    22f6:	48 8d 04 80          	lea    (%rax,%rax,4),%rax
    22fa:	48 c1 e0 06          	shl    $0x6,%rax
    22fe:	49 03 86 c0 03 00 00 	add    0x3c0(%r14),%rax
    2305:	f0 80 a0 90 00 00 00 	lock andb $0xfe,0x90(%rax)
    230c:	fe 
    230d:	83 c2 01             	add    $0x1,%edx
    2310:	41 3b 96 c8 03 00 00 	cmp    0x3c8(%r14),%edx
    2317:	72 db                	jb     22f4 <onic_open_netdev+0x7a4>
    2319:	4c 89 f7             	mov    %r14,%rdi
    231c:	45 31 ed             	xor    %r13d,%r13d
    231f:	e8 00 00 00 00       	callq  2324 <onic_open_netdev+0x7d4>
    2324:	e9 6e fd ff ff       	jmpq   2097 <onic_open_netdev+0x547>
    2329:	48 89 45 98          	mov    %rax,-0x68(%rbp)
    232d:	e9 d1 fa ff ff       	jmpq   1e03 <onic_open_netdev+0x2b3>
    2332:	4d 8d 3c c6          	lea    (%r14,%rax,8),%r15
    2336:	49 8b 9f c0 0b 00 00 	mov    0xbc0(%r15),%rbx
    233d:	48 85 db             	test   %rbx,%rbx
    2340:	74 61                	je     23a3 <onic_open_netdev+0x853>
    2342:	49 8b be d0 0f 00 00 	mov    0xfd0(%r14),%rdi
    2349:	44 89 e6             	mov    %r12d,%esi
    234c:	e8 00 00 00 00       	callq  2351 <onic_open_netdev+0x801>
    2351:	48 8b 53 28          	mov    0x28(%rbx),%rdx
    2355:	48 85 d2             	test   %rdx,%rdx
    2358:	74 2d                	je     2387 <onic_open_netdev+0x837>
    235a:	0f b7 43 20          	movzwl 0x20(%rbx),%eax
    235e:	48 8b 4b 38          	mov    0x38(%rbx),%rcx
    2362:	45 31 c0             	xor    %r8d,%r8d
    2365:	c1 e0 04             	shl    $0x4,%eax
    2368:	8d b0 f7 0f 00 00    	lea    0xff7(%rax),%esi
    236e:	49 8b 86 d0 08 00 00 	mov    0x8d0(%r14),%rax
    2375:	81 e6 00 f0 1f 00    	and    $0x1ff000,%esi
    237b:	48 8d b8 b0 00 00 00 	lea    0xb0(%rax),%rdi
    2382:	e8 00 00 00 00       	callq  2387 <onic_open_netdev+0x837>
    2387:	48 8b 7b 18          	mov    0x18(%rbx),%rdi
    238b:	e8 00 00 00 00       	callq  2390 <onic_open_netdev+0x840>
    2390:	48 89 df             	mov    %rbx,%rdi
    2393:	e8 00 00 00 00       	callq  2398 <onic_open_netdev+0x848>
    2398:	49 c7 87 c0 0b 00 00 	movq   $0x0,0xbc0(%r15)
    239f:	00 00 00 00 
    23a3:	49 63 c4             	movslq %r12d,%rax
    23a6:	44 8d 60 ff          	lea    -0x1(%rax),%r12d
    23aa:	41 83 fc ff          	cmp    $0xffffffff,%r12d
    23ae:	75 82                	jne    2332 <onic_open_netdev+0x7e2>
    23b0:	e9 08 fc ff ff       	jmpq   1fbd <onic_open_netdev+0x46d>
    23b5:	0f 0b                	ud2    
    23b7:	e8 00 00 00 00       	callq  23bc <onic_open_netdev+0x86c>
    23bc:	0f 1f 40 00          	nopl   0x0(%rax)

00000000000023c0 <onic_stop_netdev>:
    23c0:	e8 00 00 00 00       	callq  23c5 <onic_stop_netdev+0x5>
    23c5:	55                   	push   %rbp
    23c6:	48 89 e5             	mov    %rsp,%rbp
    23c9:	41 56                	push   %r14
    23cb:	41 55                	push   %r13
    23cd:	41 54                	push   %r12
    23cf:	53                   	push   %rbx
    23d0:	48 89 fb             	mov    %rdi,%rbx
    23d3:	e8 00 00 00 00       	callq  23d8 <onic_stop_netdev+0x18>
    23d8:	48 89 df             	mov    %rbx,%rdi
    23db:	e8 00 00 00 00       	callq  23e0 <onic_stop_netdev+0x20>
    23e0:	0f b7 8b ee 08 00 00 	movzwl 0x8ee(%rbx),%ecx
    23e7:	66 85 c9             	test   %cx,%cx
    23ea:	0f 84 8e 00 00 00    	je     247e <onic_stop_netdev+0xbe>
    23f0:	45 31 e4             	xor    %r12d,%r12d
    23f3:	4e 8b ac e3 c8 0b 00 	mov    0xbc8(%rbx,%r12,8),%r13
    23fa:	00 
    23fb:	4d 85 ed             	test   %r13,%r13
    23fe:	74 6a                	je     246a <onic_stop_netdev+0xaa>
    2400:	48 8b bb d0 0f 00 00 	mov    0xfd0(%rbx),%rdi
    2407:	44 89 e6             	mov    %r12d,%esi
    240a:	e8 00 00 00 00       	callq  240f <onic_stop_netdev+0x4f>
    240f:	49 8b 55 28          	mov    0x28(%r13),%rdx
    2413:	48 85 d2             	test   %rdx,%rdx
    2416:	74 2e                	je     2446 <onic_stop_netdev+0x86>
    2418:	41 0f b7 45 20       	movzwl 0x20(%r13),%eax
    241d:	49 8b 4d 38          	mov    0x38(%r13),%rcx
    2421:	45 31 c0             	xor    %r8d,%r8d
    2424:	c1 e0 04             	shl    $0x4,%eax
    2427:	8d b0 f7 0f 00 00    	lea    0xff7(%rax),%esi
    242d:	48 8b 83 d0 08 00 00 	mov    0x8d0(%rbx),%rax
    2434:	81 e6 00 f0 1f 00    	and    $0x1ff000,%esi
    243a:	48 8d b8 b0 00 00 00 	lea    0xb0(%rax),%rdi
    2441:	e8 00 00 00 00       	callq  2446 <onic_stop_netdev+0x86>
    2446:	49 8b 7d 18          	mov    0x18(%r13),%rdi
    244a:	e8 00 00 00 00       	callq  244f <onic_stop_netdev+0x8f>
    244f:	4c 89 ef             	mov    %r13,%rdi
    2452:	e8 00 00 00 00       	callq  2457 <onic_stop_netdev+0x97>
    2457:	4a c7 84 e3 c8 0b 00 	movq   $0x0,0xbc8(%rbx,%r12,8)
    245e:	00 00 00 00 00 
    2463:	0f b7 8b ee 08 00 00 	movzwl 0x8ee(%rbx),%ecx
    246a:	41 8d 44 24 01       	lea    0x1(%r12),%eax
    246f:	0f b7 d1             	movzwl %cx,%edx
    2472:	49 83 c4 01          	add    $0x1,%r12
    2476:	39 c2                	cmp    %eax,%edx
    2478:	0f 8f 75 ff ff ff    	jg     23f3 <onic_stop_netdev+0x33>
    247e:	0f b7 8b f0 08 00 00 	movzwl 0x8f0(%rbx),%ecx
    2485:	66 85 c9             	test   %cx,%cx
    2488:	0f 84 e0 00 00 00    	je     256e <onic_stop_netdev+0x1ae>
    248e:	45 31 ed             	xor    %r13d,%r13d
    2491:	4e 8b a4 eb c8 0d 00 	mov    0xdc8(%rbx,%r13,8),%r12
    2498:	00 
    2499:	4d 85 e4             	test   %r12,%r12
    249c:	0f 84 b9 00 00 00    	je     255b <onic_stop_netdev+0x19b>
    24a2:	48 8b bb d0 0f 00 00 	mov    0xfd0(%rbx),%rdi
    24a9:	4d 8d 74 24 70       	lea    0x70(%r12),%r14
    24ae:	44 89 ee             	mov    %r13d,%esi
    24b1:	e8 00 00 00 00       	callq  24b6 <onic_stop_netdev+0xf6>
    24b6:	4c 89 f7             	mov    %r14,%rdi
    24b9:	e8 00 00 00 00       	callq  24be <onic_stop_netdev+0xfe>
    24be:	4c 89 f7             	mov    %r14,%rdi
    24c1:	e8 00 00 00 00       	callq  24c6 <onic_stop_netdev+0x106>
    24c6:	49 8b 54 24 20       	mov    0x20(%r12),%rdx
    24cb:	48 85 d2             	test   %rdx,%rdx
    24ce:	74 2e                	je     24fe <onic_stop_netdev+0x13e>
    24d0:	41 0f b7 44 24 18    	movzwl 0x18(%r12),%eax
    24d6:	49 8b 4c 24 30       	mov    0x30(%r12),%rcx
    24db:	45 31 c0             	xor    %r8d,%r8d
    24de:	8d 34 c5 ff 0f 00 00 	lea    0xfff(,%rax,8),%esi
    24e5:	48 8b 83 d0 08 00 00 	mov    0x8d0(%rbx),%rax
    24ec:	81 e6 00 f0 0f 00    	and    $0xff000,%esi
    24f2:	48 8d b8 b0 00 00 00 	lea    0xb0(%rax),%rdi
    24f9:	e8 00 00 00 00       	callq  24fe <onic_stop_netdev+0x13e>
    24fe:	49 8b 54 24 48       	mov    0x48(%r12),%rdx
    2503:	48 85 d2             	test   %rdx,%rdx
    2506:	74 2e                	je     2536 <onic_stop_netdev+0x176>
    2508:	41 0f b7 44 24 40    	movzwl 0x40(%r12),%eax
    250e:	49 8b 4c 24 58       	mov    0x58(%r12),%rcx
    2513:	45 31 c0             	xor    %r8d,%r8d
    2516:	8d 34 c5 ff 0f 00 00 	lea    0xfff(,%rax,8),%esi
    251d:	48 8b 83 d0 08 00 00 	mov    0x8d0(%rbx),%rax
    2524:	81 e6 00 f0 0f 00    	and    $0xff000,%esi
    252a:	48 8d b8 b0 00 00 00 	lea    0xb0(%rax),%rdi
    2531:	e8 00 00 00 00       	callq  2536 <onic_stop_netdev+0x176>
    2536:	49 8b 7c 24 10       	mov    0x10(%r12),%rdi
    253b:	e8 00 00 00 00       	callq  2540 <onic_stop_netdev+0x180>
    2540:	4c 89 e7             	mov    %r12,%rdi
    2543:	e8 00 00 00 00       	callq  2548 <onic_stop_netdev+0x188>
    2548:	4a c7 84 eb c8 0d 00 	movq   $0x0,0xdc8(%rbx,%r13,8)
    254f:	00 00 00 00 00 
    2554:	0f b7 8b f0 08 00 00 	movzwl 0x8f0(%rbx),%ecx
    255b:	41 8d 45 01          	lea    0x1(%r13),%eax
    255f:	0f b7 d1             	movzwl %cx,%edx
    2562:	49 83 c5 01          	add    $0x1,%r13
    2566:	39 c2                	cmp    %eax,%edx
    2568:	0f 8f 23 ff ff ff    	jg     2491 <onic_stop_netdev+0xd1>
    256e:	5b                   	pop    %rbx
    256f:	31 c0                	xor    %eax,%eax
    2571:	41 5c                	pop    %r12
    2573:	41 5d                	pop    %r13
    2575:	41 5e                	pop    %r14
    2577:	5d                   	pop    %rbp
    2578:	c3                   	retq   
    2579:	0f 1f 80 00 00 00 00 	nopl   0x0(%rax)

0000000000002580 <onic_xmit_frame>:
    2580:	e8 00 00 00 00       	callq  2585 <onic_xmit_frame+0x5>
    2585:	55                   	push   %rbp
    2586:	48 89 e5             	mov    %rsp,%rbp
    2589:	41 57                	push   %r15
    258b:	41 56                	push   %r14
    258d:	41 55                	push   %r13
    258f:	41 54                	push   %r12
    2591:	49 89 fd             	mov    %rdi,%r13
    2594:	53                   	push   %rbx
    2595:	49 89 f6             	mov    %rsi,%r14
    2598:	48 83 ec 18          	sub    $0x18,%rsp
    259c:	65 48 8b 04 25 28 00 	mov    %gs:0x28,%rax
    25a3:	00 00 
    25a5:	48 89 45 d0          	mov    %rax,-0x30(%rbp)
    25a9:	31 c0                	xor    %eax,%eax
    25ab:	0f b7 47 7c          	movzwl 0x7c(%rdi),%eax
    25af:	48 8b 9c c6 c8 0b 00 	mov    0xbc8(%rsi,%rax,8),%rbx
    25b6:	00 
    25b7:	49 89 c4             	mov    %rax,%r12
    25ba:	48 89 df             	mov    %rbx,%rdi
    25bd:	e8 5e f0 ff ff       	callq  1620 <onic_tx_clean>
    25c2:	48 83 7b 30 01       	cmpq   $0x1,0x30(%rbx)
    25c7:	0f b7 4b 20          	movzwl 0x20(%rbx),%ecx
    25cb:	0f b7 43 40          	movzwl 0x40(%rbx),%eax
    25cf:	66 83 d1 ff          	adc    $0xffff,%cx
    25d3:	83 c0 01             	add    $0x1,%eax
    25d6:	0f b7 c9             	movzwl %cx,%ecx
    25d9:	99                   	cltd   
    25da:	f7 f9                	idiv   %ecx
    25dc:	0f b7 43 42          	movzwl 0x42(%rbx),%eax
    25e0:	39 c2                	cmp    %eax,%edx
    25e2:	0f 84 98 01 00 00    	je     2780 <onic_xmit_frame+0x200>
    25e8:	41 8b 4d 70          	mov    0x70(%r13),%ecx
    25ec:	83 f9 3b             	cmp    $0x3b,%ecx
    25ef:	0f 86 d8 01 00 00    	jbe    27cd <onic_xmit_frame+0x24d>
    25f5:	49 8b 85 c8 00 00 00 	mov    0xc8(%r13),%rax
    25fc:	48 8b 15 00 00 00 00 	mov    0x0(%rip),%rdx        # 2603 <onic_xmit_frame+0x83>
    2603:	4d 8b 86 d0 08 00 00 	mov    0x8d0(%r14),%r8
    260a:	48 39 d0             	cmp    %rdx,%rax
    260d:	49 8d b8 b0 00 00 00 	lea    0xb0(%r8),%rdi
    2614:	0f 83 27 01 00 00    	jae    2741 <onic_xmit_frame+0x1c1>
    261a:	48 89 c2             	mov    %rax,%rdx
    261d:	be 00 00 00 80       	mov    $0x80000000,%esi
    2622:	81 e2 ff 0f 00 00    	and    $0xfff,%edx
    2628:	48 01 f0             	add    %rsi,%rax
    262b:	0f 82 2c 02 00 00    	jb     285d <onic_xmit_frame+0x2dd>
    2631:	48 c7 c6 00 00 00 80 	mov    $0xffffffff80000000,%rsi
    2638:	48 2b 35 00 00 00 00 	sub    0x0(%rip),%rsi        # 263f <onic_xmit_frame+0xbf>
    263f:	48 01 f0             	add    %rsi,%rax
    2642:	48 c1 e8 0c          	shr    $0xc,%rax
    2646:	48 c1 e0 06          	shl    $0x6,%rax
    264a:	48 03 05 00 00 00 00 	add    0x0(%rip),%rax        # 2651 <onic_xmit_frame+0xd1>
    2651:	48 89 c6             	mov    %rax,%rsi
    2654:	49 8b 80 d8 02 00 00 	mov    0x2d8(%r8),%rax
    265b:	48 85 c0             	test   %rax,%rax
    265e:	0f 84 43 01 00 00    	je     27a7 <onic_xmit_frame+0x227>
    2664:	4c 8b 50 20          	mov    0x20(%rax),%r10
    2668:	45 31 c9             	xor    %r9d,%r9d
    266b:	41 b8 01 00 00 00    	mov    $0x1,%r8d
    2671:	e8 00 00 00 00       	callq  2676 <onic_xmit_frame+0xf6>
    2676:	49 89 c7             	mov    %rax,%r15
    2679:	49 83 ff ff          	cmp    $0xffffffffffffffff,%r15
    267d:	0f 84 e1 00 00 00    	je     2764 <onic_xmit_frame+0x1e4>
    2683:	0f b7 7b 40          	movzwl 0x40(%rbx),%edi
    2687:	41 8b 45 70          	mov    0x70(%r13),%eax
    268b:	48 8d 75 c0          	lea    -0x40(%rbp),%rsi
    268f:	4c 89 7d c8          	mov    %r15,-0x38(%rbp)
    2693:	66 89 45 c4          	mov    %ax,-0x3c(%rbp)
    2697:	89 45 c0             	mov    %eax,-0x40(%rbp)
    269a:	c1 e7 04             	shl    $0x4,%edi
    269d:	48 63 ff             	movslq %edi,%rdi
    26a0:	48 03 7b 28          	add    0x28(%rbx),%rdi
    26a4:	e8 00 00 00 00       	callq  26a9 <onic_xmit_frame+0x129>
    26a9:	0f b7 43 40          	movzwl 0x40(%rbx),%eax
    26ad:	48 c1 e0 05          	shl    $0x5,%rax
    26b1:	48 03 43 18          	add    0x18(%rbx),%rax
    26b5:	4c 89 28             	mov    %r13,(%rax)
    26b8:	0f b7 53 40          	movzwl 0x40(%rbx),%edx
    26bc:	48 c1 e2 05          	shl    $0x5,%rdx
    26c0:	48 03 53 18          	add    0x18(%rbx),%rdx
    26c4:	4c 89 7a 08          	mov    %r15,0x8(%rdx)
    26c8:	0f b7 43 40          	movzwl 0x40(%rbx),%eax
    26cc:	41 8b 55 70          	mov    0x70(%r13),%edx
    26d0:	48 c1 e0 05          	shl    $0x5,%rax
    26d4:	48 03 43 18          	add    0x18(%rbx),%rax
    26d8:	89 50 10             	mov    %edx,0x10(%rax)
    26db:	49 83 86 08 09 00 00 	addq   $0x1,0x908(%r14)
    26e2:	01 
    26e3:	41 8b 45 70          	mov    0x70(%r13),%eax
    26e7:	49 01 86 18 09 00 00 	add    %rax,0x918(%r14)
    26ee:	48 83 7b 30 01       	cmpq   $0x1,0x30(%rbx)
    26f3:	0f b7 43 40          	movzwl 0x40(%rbx),%eax
    26f7:	0f b7 4b 20          	movzwl 0x20(%rbx),%ecx
    26fb:	66 83 d1 ff          	adc    $0xffff,%cx
    26ff:	83 c0 01             	add    $0x1,%eax
    2702:	0f b7 c9             	movzwl %cx,%ecx
    2705:	99                   	cltd   
    2706:	f7 f9                	idiv   %ecx
    2708:	8d 42 01             	lea    0x1(%rdx),%eax
    270b:	66 89 53 40          	mov    %dx,0x40(%rbx)
    270f:	99                   	cltd   
    2710:	f7 f9                	idiv   %ecx
    2712:	0f b7 43 42          	movzwl 0x42(%rbx),%eax
    2716:	39 c2                	cmp    %eax,%edx
    2718:	74 0d                	je     2727 <onic_xmit_frame+0x1a7>
    271a:	65 8a 15 00 00 00 00 	mov    %gs:0x0(%rip),%dl        # 2721 <onic_xmit_frame+0x1a1>
    2721:	31 c0                	xor    %eax,%eax
    2723:	84 d2                	test   %dl,%dl
    2725:	75 5e                	jne    2785 <onic_xmit_frame+0x205>
    2727:	0f ae f8             	sfence 
    272a:	0f b7 53 40          	movzwl 0x40(%rbx),%edx
    272e:	49 8b be d0 0f 00 00 	mov    0xfd0(%r14),%rdi
    2735:	44 89 e6             	mov    %r12d,%esi
    2738:	e8 00 00 00 00       	callq  273d <onic_xmit_frame+0x1bd>
    273d:	31 c0                	xor    %eax,%eax
    273f:	eb 44                	jmp    2785 <onic_xmit_frame+0x205>
    2741:	48 be ff ff ff ff ff 	movabs $0x1fffffffffff,%rsi
    2748:	1f 00 00 
    274b:	48 01 f2             	add    %rsi,%rdx
    274e:	48 39 d0             	cmp    %rdx,%rax
    2751:	0f 83 c3 fe ff ff    	jae    261a <onic_xmit_frame+0x9a>
    2757:	80 3d 00 00 00 00 00 	cmpb   $0x0,0x0(%rip)        # 275e <onic_xmit_frame+0x1de>
    275e:	0f 84 af 00 00 00    	je     2813 <onic_xmit_frame+0x293>
    2764:	4c 89 ef             	mov    %r13,%rdi
    2767:	e8 00 00 00 00       	callq  276c <onic_xmit_frame+0x1ec>
    276c:	49 83 86 38 09 00 00 	addq   $0x1,0x938(%r14)
    2773:	01 
    2774:	49 83 86 28 09 00 00 	addq   $0x1,0x928(%r14)
    277b:	01 
    277c:	31 c0                	xor    %eax,%eax
    277e:	eb 05                	jmp    2785 <onic_xmit_frame+0x205>
    2780:	b8 10 00 00 00       	mov    $0x10,%eax
    2785:	48 8b 75 d0          	mov    -0x30(%rbp),%rsi
    2789:	65 48 33 34 25 28 00 	xor    %gs:0x28,%rsi
    2790:	00 00 
    2792:	0f 85 c0 00 00 00    	jne    2858 <onic_xmit_frame+0x2d8>
    2798:	48 83 c4 18          	add    $0x18,%rsp
    279c:	5b                   	pop    %rbx
    279d:	41 5c                	pop    %r12
    279f:	41 5d                	pop    %r13
    27a1:	41 5e                	pop    %r14
    27a3:	41 5f                	pop    %r15
    27a5:	5d                   	pop    %rbp
    27a6:	c3                   	retq   
    27a7:	48 8b 05 00 00 00 00 	mov    0x0(%rip),%rax        # 27ae <onic_xmit_frame+0x22e>
    27ae:	48 85 c0             	test   %rax,%rax
    27b1:	0f 85 ad fe ff ff    	jne    2664 <onic_xmit_frame+0xe4>
    27b7:	45 31 c9             	xor    %r9d,%r9d
    27ba:	41 b8 01 00 00 00    	mov    $0x1,%r8d
    27c0:	e8 00 00 00 00       	callq  27c5 <onic_xmit_frame+0x245>
    27c5:	49 89 c7             	mov    %rax,%r15
    27c8:	e9 ac fe ff ff       	jmpq   2679 <onic_xmit_frame+0xf9>
    27cd:	41 bf 3c 00 00 00    	mov    $0x3c,%r15d
    27d3:	ba 01 00 00 00       	mov    $0x1,%edx
    27d8:	4c 89 ef             	mov    %r13,%rdi
    27db:	41 29 cf             	sub    %ecx,%r15d
    27de:	44 89 fe             	mov    %r15d,%esi
    27e1:	e8 00 00 00 00       	callq  27e6 <onic_xmit_frame+0x266>
    27e6:	85 c0                	test   %eax,%eax
    27e8:	75 65                	jne    284f <onic_xmit_frame+0x2cf>
    27ea:	41 8b 55 74          	mov    0x74(%r13),%edx
    27ee:	41 8b 85 b8 00 00 00 	mov    0xb8(%r13),%eax
    27f5:	85 d2                	test   %edx,%edx
    27f7:	75 4b                	jne    2844 <onic_xmit_frame+0x2c4>
    27f9:	44 89 f9             	mov    %r15d,%ecx
    27fc:	41 03 4d 70          	add    0x70(%r13),%ecx
    2800:	44 01 f8             	add    %r15d,%eax
    2803:	41 89 85 b8 00 00 00 	mov    %eax,0xb8(%r13)
    280a:	41 89 4d 70          	mov    %ecx,0x70(%r13)
    280e:	e9 e2 fd ff ff       	jmpq   25f5 <onic_xmit_frame+0x75>
    2813:	49 8b 98 00 01 00 00 	mov    0x100(%r8),%rbx
    281a:	c6 05 00 00 00 00 01 	movb   $0x1,0x0(%rip)        # 2821 <onic_xmit_frame+0x2a1>
    2821:	48 85 db             	test   %rbx,%rbx
    2824:	74 20                	je     2846 <onic_xmit_frame+0x2c6>
    2826:	e8 00 00 00 00       	callq  282b <onic_xmit_frame+0x2ab>
    282b:	48 89 da             	mov    %rbx,%rdx
    282e:	48 89 c6             	mov    %rax,%rsi
    2831:	48 c7 c7 00 00 00 00 	mov    $0x0,%rdi
    2838:	e8 00 00 00 00       	callq  283d <onic_xmit_frame+0x2bd>
    283d:	0f 0b                	ud2    
    283f:	e9 20 ff ff ff       	jmpq   2764 <onic_xmit_frame+0x1e4>
    2844:	0f 0b                	ud2    
    2846:	49 8b 98 b0 00 00 00 	mov    0xb0(%r8),%rbx
    284d:	eb d7                	jmp    2826 <onic_xmit_frame+0x2a6>
    284f:	41 8b 4d 70          	mov    0x70(%r13),%ecx
    2853:	e9 9d fd ff ff       	jmpq   25f5 <onic_xmit_frame+0x75>
    2858:	e8 00 00 00 00       	callq  285d <onic_xmit_frame+0x2dd>
    285d:	48 8b 35 00 00 00 00 	mov    0x0(%rip),%rsi        # 2864 <onic_xmit_frame+0x2e4>
    2864:	e9 d6 fd ff ff       	jmpq   263f <onic_xmit_frame+0xbf>
    2869:	0f 1f 80 00 00 00 00 	nopl   0x0(%rax)

0000000000002870 <onic_set_mac_address>:
    2870:	e8 00 00 00 00       	callq  2875 <onic_set_mac_address+0x5>
    2875:	8b 56 02             	mov    0x2(%rsi),%edx
    2878:	b8 9d ff ff ff       	mov    $0xffffff9d,%eax
    287d:	f6 c2 01             	test   $0x1,%dl
    2880:	75 76                	jne    28f8 <onic_set_mac_address+0x88>
    2882:	0f b7 4e 06          	movzwl 0x6(%rsi),%ecx
    2886:	09 d1                	or     %edx,%ecx
    2888:	74 6e                	je     28f8 <onic_set_mac_address+0x88>
    288a:	55                   	push   %rbp
    288b:	48 89 e5             	mov    %rsp,%rbp
    288e:	41 54                	push   %r12
    2890:	53                   	push   %rbx
    2891:	0f b6 46 07          	movzbl 0x7(%rsi),%eax
    2895:	0f b6 4e 03          	movzbl 0x3(%rsi),%ecx
    2899:	49 89 fc             	mov    %rdi,%r12
    289c:	0f b6 56 02          	movzbl 0x2(%rsi),%edx
    28a0:	48 89 f3             	mov    %rsi,%rbx
    28a3:	50                   	push   %rax
    28a4:	0f b6 46 06          	movzbl 0x6(%rsi),%eax
    28a8:	50                   	push   %rax
    28a9:	44 0f b6 4e 05       	movzbl 0x5(%rsi),%r9d
    28ae:	44 0f b6 46 04       	movzbl 0x4(%rsi),%r8d
    28b3:	48 c7 c6 00 00 00 00 	mov    $0x0,%rsi
    28ba:	e8 00 00 00 00       	callq  28bf <onic_set_mac_address+0x4f>
    28bf:	41 0f b6 84 24 77 02 	movzbl 0x277(%r12),%eax
    28c6:	00 00 
    28c8:	49 8b 8c 24 38 03 00 	mov    0x338(%r12),%rcx
    28cf:	00 
    28d0:	48 8d 73 02          	lea    0x2(%rbx),%rsi
    28d4:	83 f8 08             	cmp    $0x8,%eax
    28d7:	73 21                	jae    28fa <onic_set_mac_address+0x8a>
    28d9:	a8 04                	test   $0x4,%al
    28db:	75 57                	jne    2934 <onic_set_mac_address+0xc4>
    28dd:	85 c0                	test   %eax,%eax
    28df:	74 0a                	je     28eb <onic_set_mac_address+0x7b>
    28e1:	0f b6 53 02          	movzbl 0x2(%rbx),%edx
    28e5:	a8 02                	test   $0x2,%al
    28e7:	88 11                	mov    %dl,(%rcx)
    28e9:	75 5a                	jne    2945 <onic_set_mac_address+0xd5>
    28eb:	58                   	pop    %rax
    28ec:	5a                   	pop    %rdx
    28ed:	48 8d 65 f0          	lea    -0x10(%rbp),%rsp
    28f1:	31 c0                	xor    %eax,%eax
    28f3:	5b                   	pop    %rbx
    28f4:	41 5c                	pop    %r12
    28f6:	5d                   	pop    %rbp
    28f7:	c3                   	retq   
    28f8:	f3 c3                	repz retq 
    28fa:	48 8b 53 02          	mov    0x2(%rbx),%rdx
    28fe:	48 89 11             	mov    %rdx,(%rcx)
    2901:	89 c2                	mov    %eax,%edx
    2903:	48 8b 7c 16 f8       	mov    -0x8(%rsi,%rdx,1),%rdi
    2908:	48 89 7c 11 f8       	mov    %rdi,-0x8(%rcx,%rdx,1)
    290d:	48 8d 79 08          	lea    0x8(%rcx),%rdi
    2911:	48 83 e7 f8          	and    $0xfffffffffffffff8,%rdi
    2915:	48 29 f9             	sub    %rdi,%rcx
    2918:	48 29 ce             	sub    %rcx,%rsi
    291b:	01 c1                	add    %eax,%ecx
    291d:	89 c8                	mov    %ecx,%eax
    291f:	c1 e8 03             	shr    $0x3,%eax
    2922:	89 c1                	mov    %eax,%ecx
    2924:	f3 48 a5             	rep movsq %ds:(%rsi),%es:(%rdi)
    2927:	58                   	pop    %rax
    2928:	5a                   	pop    %rdx
    2929:	48 8d 65 f0          	lea    -0x10(%rbp),%rsp
    292d:	31 c0                	xor    %eax,%eax
    292f:	5b                   	pop    %rbx
    2930:	41 5c                	pop    %r12
    2932:	5d                   	pop    %rbp
    2933:	c3                   	retq   
    2934:	8b 53 02             	mov    0x2(%rbx),%edx
    2937:	89 11                	mov    %edx,(%rcx)
    2939:	89 c2                	mov    %eax,%edx
    293b:	8b 44 16 fc          	mov    -0x4(%rsi,%rdx,1),%eax
    293f:	89 44 11 fc          	mov    %eax,-0x4(%rcx,%rdx,1)
    2943:	eb a6                	jmp    28eb <onic_set_mac_address+0x7b>
    2945:	89 c2                	mov    %eax,%edx
    2947:	0f b7 44 16 fe       	movzwl -0x2(%rsi,%rdx,1),%eax
    294c:	66 89 44 11 fe       	mov    %ax,-0x2(%rcx,%rdx,1)
    2951:	eb 98                	jmp    28eb <onic_set_mac_address+0x7b>
    2953:	0f 1f 00             	nopl   (%rax)
    2956:	66 2e 0f 1f 84 00 00 	nopw   %cs:0x0(%rax,%rax,1)
    295d:	00 00 00 

0000000000002960 <onic_do_ioctl>:
    2960:	e8 00 00 00 00       	callq  2965 <onic_do_ioctl+0x5>
    2965:	55                   	push   %rbp
    2966:	31 c0                	xor    %eax,%eax
    2968:	48 89 e5             	mov    %rsp,%rbp
    296b:	5d                   	pop    %rbp
    296c:	c3                   	retq   
    296d:	0f 1f 00             	nopl   (%rax)

0000000000002970 <onic_change_mtu>:
    2970:	e8 00 00 00 00       	callq  2975 <onic_change_mtu+0x5>
    2975:	55                   	push   %rbp
    2976:	89 f2                	mov    %esi,%edx
    2978:	48 c7 c6 00 00 00 00 	mov    $0x0,%rsi
    297f:	48 89 e5             	mov    %rsp,%rbp
    2982:	e8 00 00 00 00       	callq  2987 <onic_change_mtu+0x17>
    2987:	31 c0                	xor    %eax,%eax
    2989:	5d                   	pop    %rbp
    298a:	c3                   	retq   
    298b:	0f 1f 44 00 00       	nopl   0x0(%rax,%rax,1)

0000000000002990 <onic_get_stats64>:
    2990:	48 8b 87 08 09 00 00 	mov    0x908(%rdi),%rax
    2997:	55                   	push   %rbp
    2998:	48 89 e5             	mov    %rsp,%rbp
    299b:	48 89 46 08          	mov    %rax,0x8(%rsi)
    299f:	48 8b 87 18 09 00 00 	mov    0x918(%rdi),%rax
    29a6:	5d                   	pop    %rbp
    29a7:	48 89 46 18          	mov    %rax,0x18(%rsi)
    29ab:	48 8b 87 00 09 00 00 	mov    0x900(%rdi),%rax
    29b2:	48 89 06             	mov    %rax,(%rsi)
    29b5:	48 8b 87 10 09 00 00 	mov    0x910(%rdi),%rax
    29bc:	48 89 46 10          	mov    %rax,0x10(%rsi)
    29c0:	48 8b 87 38 09 00 00 	mov    0x938(%rdi),%rax
    29c7:	48 89 46 38          	mov    %rax,0x38(%rsi)
    29cb:	48 8b 87 28 09 00 00 	mov    0x928(%rdi),%rax
    29d2:	48 89 46 28          	mov    %rax,0x28(%rsi)
    29d6:	c3                   	retq   
    29d7:	66 0f 1f 84 00 00 00 	nopw   0x0(%rax,%rax,1)
    29de:	00 00 

00000000000029e0 <print_raw_data>:
    29e0:	e8 00 00 00 00       	callq  29e5 <print_raw_data+0x5>
    29e5:	55                   	push   %rbp
    29e6:	48 89 e5             	mov    %rsp,%rbp
    29e9:	41 57                	push   %r15
    29eb:	41 56                	push   %r14
    29ed:	41 55                	push   %r13
    29ef:	41 54                	push   %r12
    29f1:	49 89 fd             	mov    %rdi,%r13
    29f4:	53                   	push   %rbx
    29f5:	bf 00 08 00 00       	mov    $0x800,%edi
    29fa:	41 89 f4             	mov    %esi,%r12d
    29fd:	e8 00 00 00 00       	callq  2a02 <print_raw_data+0x22>
    2a02:	48 85 c0             	test   %rax,%rax
    2a05:	75 0b                	jne    2a12 <print_raw_data+0x32>
    2a07:	5b                   	pop    %rbx
    2a08:	41 5c                	pop    %r12
    2a0a:	41 5d                	pop    %r13
    2a0c:	41 5e                	pop    %r14
    2a0e:	41 5f                	pop    %r15
    2a10:	5d                   	pop    %rbp
    2a11:	c3                   	retq   
    2a12:	44 89 e2             	mov    %r12d,%edx
    2a15:	48 c7 c6 00 00 00 00 	mov    $0x0,%rsi
    2a1c:	48 c7 c7 00 00 00 00 	mov    $0x0,%rdi
    2a23:	48 89 c3             	mov    %rax,%rbx
    2a26:	e8 00 00 00 00       	callq  2a2b <print_raw_data+0x4b>
    2a2b:	45 85 e4             	test   %r12d,%r12d
    2a2e:	74 65                	je     2a95 <print_raw_data+0xb5>
    2a30:	41 0f b6 4d 00       	movzbl 0x0(%r13),%ecx
    2a35:	48 c7 c2 00 00 00 00 	mov    $0x0,%rdx
    2a3c:	be 00 08 00 00       	mov    $0x800,%esi
    2a41:	48 89 df             	mov    %rbx,%rdi
    2a44:	45 31 f6             	xor    %r14d,%r14d
    2a47:	41 bf 03 00 00 00    	mov    $0x3,%r15d
    2a4d:	e8 00 00 00 00       	callq  2a52 <print_raw_data+0x72>
    2a52:	eb 32                	jmp    2a86 <print_raw_data+0xa6>
    2a54:	49 63 c6             	movslq %r14d,%rax
    2a57:	49 63 ff             	movslq %r15d,%rdi
    2a5a:	be 00 08 00 00       	mov    $0x800,%esi
    2a5f:	41 0f b6 4c 05 00    	movzbl 0x0(%r13,%rax,1),%ecx
    2a65:	44 29 fe             	sub    %r15d,%esi
    2a68:	48 01 df             	add    %rbx,%rdi
    2a6b:	48 c7 c2 00 00 00 00 	mov    $0x0,%rdx
    2a72:	41 83 c7 03          	add    $0x3,%r15d
    2a76:	e8 00 00 00 00       	callq  2a7b <print_raw_data+0x9b>
    2a7b:	44 89 f0             	mov    %r14d,%eax
    2a7e:	83 e0 0f             	and    $0xf,%eax
    2a81:	83 f8 0f             	cmp    $0xf,%eax
    2a84:	74 1c                	je     2aa2 <print_raw_data+0xc2>
    2a86:	41 83 c6 01          	add    $0x1,%r14d
    2a8a:	45 39 e6             	cmp    %r12d,%r14d
    2a8d:	75 c5                	jne    2a54 <print_raw_data+0x74>
    2a8f:	41 80 e6 0f          	and    $0xf,%r14b
    2a93:	75 28                	jne    2abd <print_raw_data+0xdd>
    2a95:	48 89 df             	mov    %rbx,%rdi
    2a98:	e8 00 00 00 00       	callq  2a9d <print_raw_data+0xbd>
    2a9d:	e9 65 ff ff ff       	jmpq   2a07 <print_raw_data+0x27>
    2aa2:	48 89 da             	mov    %rbx,%rdx
    2aa5:	48 c7 c6 00 00 00 00 	mov    $0x0,%rsi
    2aac:	48 c7 c7 00 00 00 00 	mov    $0x0,%rdi
    2ab3:	e8 00 00 00 00       	callq  2ab8 <print_raw_data+0xd8>
    2ab8:	45 31 ff             	xor    %r15d,%r15d
    2abb:	eb c9                	jmp    2a86 <print_raw_data+0xa6>
    2abd:	48 89 da             	mov    %rbx,%rdx
    2ac0:	48 c7 c6 00 00 00 00 	mov    $0x0,%rsi
    2ac7:	48 c7 c7 00 00 00 00 	mov    $0x0,%rdi
    2ace:	e8 00 00 00 00       	callq  2ad3 <print_raw_data+0xf3>
    2ad3:	eb c0                	jmp    2a95 <print_raw_data+0xb5>
    2ad5:	90                   	nop
    2ad6:	66 2e 0f 1f 84 00 00 	nopw   %cs:0x0(%rax,%rax,1)
    2add:	00 00 00 

0000000000002ae0 <print_skb>:
    2ae0:	e8 00 00 00 00       	callq  2ae5 <print_skb+0x5>
    2ae5:	55                   	push   %rbp
    2ae6:	48 89 e5             	mov    %rsp,%rbp
    2ae9:	41 57                	push   %r15
    2aeb:	41 56                	push   %r14
    2aed:	41 55                	push   %r13
    2aef:	41 54                	push   %r12
    2af1:	53                   	push   %rbx
    2af2:	44 8b 67 70          	mov    0x70(%rdi),%r12d
    2af6:	4c 8b af c8 00 00 00 	mov    0xc8(%rdi),%r13
    2afd:	bf 00 08 00 00       	mov    $0x800,%edi
    2b02:	e8 00 00 00 00       	callq  2b07 <print_skb+0x27>
    2b07:	48 85 c0             	test   %rax,%rax
    2b0a:	75 0b                	jne    2b17 <print_skb+0x37>
    2b0c:	5b                   	pop    %rbx
    2b0d:	41 5c                	pop    %r12
    2b0f:	41 5d                	pop    %r13
    2b11:	41 5e                	pop    %r14
    2b13:	41 5f                	pop    %r15
    2b15:	5d                   	pop    %rbp
    2b16:	c3                   	retq   
    2b17:	44 89 e2             	mov    %r12d,%edx
    2b1a:	48 c7 c6 00 00 00 00 	mov    $0x0,%rsi
    2b21:	48 c7 c7 00 00 00 00 	mov    $0x0,%rdi
    2b28:	48 89 c3             	mov    %rax,%rbx
    2b2b:	e8 00 00 00 00       	callq  2b30 <print_skb+0x50>
    2b30:	45 85 e4             	test   %r12d,%r12d
    2b33:	74 65                	je     2b9a <print_skb+0xba>
    2b35:	41 0f b6 4d 00       	movzbl 0x0(%r13),%ecx
    2b3a:	48 c7 c2 00 00 00 00 	mov    $0x0,%rdx
    2b41:	be 00 08 00 00       	mov    $0x800,%esi
    2b46:	48 89 df             	mov    %rbx,%rdi
    2b49:	45 31 f6             	xor    %r14d,%r14d
    2b4c:	41 bf 03 00 00 00    	mov    $0x3,%r15d
    2b52:	e8 00 00 00 00       	callq  2b57 <print_skb+0x77>
    2b57:	eb 32                	jmp    2b8b <print_skb+0xab>
    2b59:	49 63 c6             	movslq %r14d,%rax
    2b5c:	49 63 ff             	movslq %r15d,%rdi
    2b5f:	be 00 08 00 00       	mov    $0x800,%esi
    2b64:	41 0f b6 4c 05 00    	movzbl 0x0(%r13,%rax,1),%ecx
    2b6a:	44 29 fe             	sub    %r15d,%esi
    2b6d:	48 01 df             	add    %rbx,%rdi
    2b70:	48 c7 c2 00 00 00 00 	mov    $0x0,%rdx
    2b77:	41 83 c7 03          	add    $0x3,%r15d
    2b7b:	e8 00 00 00 00       	callq  2b80 <print_skb+0xa0>
    2b80:	44 89 f0             	mov    %r14d,%eax
    2b83:	83 e0 0f             	and    $0xf,%eax
    2b86:	83 f8 0f             	cmp    $0xf,%eax
    2b89:	74 1c                	je     2ba7 <print_skb+0xc7>
    2b8b:	41 83 c6 01          	add    $0x1,%r14d
    2b8f:	45 39 e6             	cmp    %r12d,%r14d
    2b92:	75 c5                	jne    2b59 <print_skb+0x79>
    2b94:	41 80 e6 0f          	and    $0xf,%r14b
    2b98:	75 28                	jne    2bc2 <print_skb+0xe2>
    2b9a:	48 89 df             	mov    %rbx,%rdi
    2b9d:	e8 00 00 00 00       	callq  2ba2 <print_skb+0xc2>
    2ba2:	e9 65 ff ff ff       	jmpq   2b0c <print_skb+0x2c>
    2ba7:	48 89 da             	mov    %rbx,%rdx
    2baa:	48 c7 c6 00 00 00 00 	mov    $0x0,%rsi
    2bb1:	48 c7 c7 00 00 00 00 	mov    $0x0,%rdi
    2bb8:	e8 00 00 00 00       	callq  2bbd <print_skb+0xdd>
    2bbd:	45 31 ff             	xor    %r15d,%r15d
    2bc0:	eb c9                	jmp    2b8b <print_skb+0xab>
    2bc2:	48 89 da             	mov    %rbx,%rdx
    2bc5:	48 c7 c6 00 00 00 00 	mov    $0x0,%rsi
    2bcc:	48 c7 c7 00 00 00 00 	mov    $0x0,%rdi
    2bd3:	e8 00 00 00 00       	callq  2bd8 <print_skb+0xf8>
    2bd8:	eb c0                	jmp    2b9a <print_skb+0xba>
    2bda:	66 0f 1f 44 00 00    	nopw   0x0(%rax,%rax,1)

0000000000002be0 <qdma_pack_h2c_st_desc>:
    2be0:	e8 00 00 00 00       	callq  2be5 <qdma_pack_h2c_st_desc+0x5>
    2be5:	55                   	push   %rbp
    2be6:	48 85 ff             	test   %rdi,%rdi
    2be9:	48 89 e5             	mov    %rsp,%rbp
    2bec:	74 24                	je     2c12 <qdma_pack_h2c_st_desc+0x32>
    2bee:	48 85 f6             	test   %rsi,%rsi
    2bf1:	74 1f                	je     2c12 <qdma_pack_h2c_st_desc+0x32>
    2bf3:	48 c7 07 00 00 00 00 	movq   $0x0,(%rdi)
    2bfa:	0f b7 46 04          	movzwl 0x4(%rsi),%eax
    2bfe:	8b 16                	mov    (%rsi),%edx
    2c00:	48 c1 e0 20          	shl    $0x20,%rax
    2c04:	48 09 d0             	or     %rdx,%rax
    2c07:	48 89 07             	mov    %rax,(%rdi)
    2c0a:	48 8b 46 08          	mov    0x8(%rsi),%rax
    2c0e:	48 89 47 08          	mov    %rax,0x8(%rdi)
    2c12:	5d                   	pop    %rbp
    2c13:	c3                   	retq   
    2c14:	66 90                	xchg   %ax,%ax
    2c16:	66 2e 0f 1f 84 00 00 	nopw   %cs:0x0(%rax,%rax,1)
    2c1d:	00 00 00 

0000000000002c20 <qdma_pack_c2h_st_desc>:
    2c20:	e8 00 00 00 00       	callq  2c25 <qdma_pack_c2h_st_desc+0x5>
    2c25:	55                   	push   %rbp
    2c26:	48 85 ff             	test   %rdi,%rdi
    2c29:	48 89 e5             	mov    %rsp,%rbp
    2c2c:	74 0b                	je     2c39 <qdma_pack_c2h_st_desc+0x19>
    2c2e:	48 85 f6             	test   %rsi,%rsi
    2c31:	74 06                	je     2c39 <qdma_pack_c2h_st_desc+0x19>
    2c33:	48 8b 06             	mov    (%rsi),%rax
    2c36:	48 89 07             	mov    %rax,(%rdi)
    2c39:	5d                   	pop    %rbp
    2c3a:	c3                   	retq   
    2c3b:	0f 1f 44 00 00       	nopl   0x0(%rax,%rax,1)

0000000000002c40 <qdma_unpack_wb_stat>:
    2c40:	e8 00 00 00 00       	callq  2c45 <qdma_unpack_wb_stat+0x5>
    2c45:	55                   	push   %rbp
    2c46:	48 85 ff             	test   %rdi,%rdi
    2c49:	48 89 e5             	mov    %rsp,%rbp
    2c4c:	74 16                	je     2c64 <qdma_unpack_wb_stat+0x24>
    2c4e:	48 85 f6             	test   %rsi,%rsi
    2c51:	74 11                	je     2c64 <qdma_unpack_wb_stat+0x24>
    2c53:	48 8b 06             	mov    (%rsi),%rax
    2c56:	66 89 07             	mov    %ax,(%rdi)
    2c59:	48 8b 06             	mov    (%rsi),%rax
    2c5c:	48 c1 e8 10          	shr    $0x10,%rax
    2c60:	66 89 47 02          	mov    %ax,0x2(%rdi)
    2c64:	5d                   	pop    %rbp
    2c65:	c3                   	retq   
    2c66:	66 2e 0f 1f 84 00 00 	nopw   %cs:0x0(%rax,%rax,1)
    2c6d:	00 00 00 

0000000000002c70 <qdma_unpack_c2h_cmpl>:
    2c70:	e8 00 00 00 00       	callq  2c75 <qdma_unpack_c2h_cmpl+0x5>
    2c75:	55                   	push   %rbp
    2c76:	48 85 ff             	test   %rdi,%rdi
    2c79:	48 89 e5             	mov    %rsp,%rbp
    2c7c:	74 33                	je     2cb1 <qdma_unpack_c2h_cmpl+0x41>
    2c7e:	48 85 f6             	test   %rsi,%rsi
    2c81:	74 2e                	je     2cb1 <qdma_unpack_c2h_cmpl+0x41>
    2c83:	48 8b 06             	mov    (%rsi),%rax
    2c86:	48 d1 e8             	shr    %rax
    2c89:	83 e0 01             	and    $0x1,%eax
    2c8c:	88 07                	mov    %al,(%rdi)
    2c8e:	48 8b 06             	mov    (%rsi),%rax
    2c91:	48 c1 e8 02          	shr    $0x2,%rax
    2c95:	83 e0 01             	and    $0x1,%eax
    2c98:	88 47 01             	mov    %al,0x1(%rdi)
    2c9b:	48 8b 06             	mov    (%rsi),%rax
    2c9e:	48 c1 e8 20          	shr    $0x20,%rax
    2ca2:	66 89 47 02          	mov    %ax,0x2(%rdi)
    2ca6:	48 8b 06             	mov    (%rsi),%rax
    2ca9:	48 c1 e8 30          	shr    $0x30,%rax
    2cad:	66 89 47 04          	mov    %ax,0x4(%rdi)
    2cb1:	5d                   	pop    %rbp
    2cb2:	c3                   	retq   
    2cb3:	0f 1f 00             	nopl   (%rax)
    2cb6:	66 2e 0f 1f 84 00 00 	nopw   %cs:0x0(%rax,%rax,1)
    2cbd:	00 00 00 

0000000000002cc0 <qdma_unpack_c2h_cmpl_stat>:
    2cc0:	e8 00 00 00 00       	callq  2cc5 <qdma_unpack_c2h_cmpl_stat+0x5>
    2cc5:	55                   	push   %rbp
    2cc6:	48 85 ff             	test   %rdi,%rdi
    2cc9:	48 89 e5             	mov    %rsp,%rbp
    2ccc:	74 30                	je     2cfe <qdma_unpack_c2h_cmpl_stat+0x3e>
    2cce:	48 85 f6             	test   %rsi,%rsi
    2cd1:	74 2b                	je     2cfe <qdma_unpack_c2h_cmpl_stat+0x3e>
    2cd3:	48 8b 06             	mov    (%rsi),%rax
    2cd6:	66 89 07             	mov    %ax,(%rdi)
    2cd9:	48 8b 06             	mov    (%rsi),%rax
    2cdc:	48 c1 e8 10          	shr    $0x10,%rax
    2ce0:	66 89 47 02          	mov    %ax,0x2(%rdi)
    2ce4:	48 8b 06             	mov    (%rsi),%rax
    2ce7:	48 c1 e8 20          	shr    $0x20,%rax
    2ceb:	83 e0 01             	and    $0x1,%eax
    2cee:	88 47 04             	mov    %al,0x4(%rdi)
    2cf1:	48 8b 06             	mov    (%rsi),%rax
    2cf4:	48 c1 e8 21          	shr    $0x21,%rax
    2cf8:	83 e0 03             	and    $0x3,%eax
    2cfb:	88 47 05             	mov    %al,0x5(%rdi)
    2cfe:	5d                   	pop    %rbp
    2cff:	c3                   	retq   

0000000000002d00 <qdma_program_ctxt>:
    2d00:	e8 00 00 00 00       	callq  2d05 <qdma_program_ctxt+0x5>
    2d05:	55                   	push   %rbp
    2d06:	48 89 e5             	mov    %rsp,%rbp
    2d09:	41 57                	push   %r15
    2d0b:	41 56                	push   %r14
    2d0d:	41 55                	push   %r13
    2d0f:	41 54                	push   %r12
    2d11:	49 89 f4             	mov    %rsi,%r12
    2d14:	53                   	push   %rbx
    2d15:	48 89 fb             	mov    %rdi,%rbx
    2d18:	48 c7 c7 00 00 00 00 	mov    $0x0,%rdi
    2d1f:	49 89 d7             	mov    %rdx,%r15
    2d22:	48 83 ec 08          	sub    $0x8,%rsp
    2d26:	89 4d d0             	mov    %ecx,-0x30(%rbp)
    2d29:	e8 00 00 00 00       	callq  2d2e <qdma_program_ctxt+0x2e>
    2d2e:	41 0f b6 04 24       	movzbl (%r12),%eax
    2d33:	83 e0 60             	and    $0x60,%eax
    2d36:	3c 20                	cmp    $0x20,%al
    2d38:	74 71                	je     2dab <qdma_program_ctxt+0xab>
    2d3a:	48 8b 43 10          	mov    0x10(%rbx),%rax
    2d3e:	41 8b 3c 24          	mov    (%r12),%edi
    2d42:	41 bd 88 13 00 00    	mov    $0x1388,%r13d
    2d48:	48 8d b0 44 08 00 00 	lea    0x844(%rax),%rsi
    2d4f:	e8 00 00 00 00       	callq  2d54 <qdma_program_ctxt+0x54>
    2d54:	eb 14                	jmp    2d6a <qdma_program_ctxt+0x6a>
    2d56:	41 83 ed 01          	sub    $0x1,%r13d
    2d5a:	0f 84 68 01 00 00    	je     2ec8 <qdma_program_ctxt+0x1c8>
    2d60:	bf bc 8d 06 00       	mov    $0x68dbc,%edi
    2d65:	e8 00 00 00 00       	callq  2d6a <qdma_program_ctxt+0x6a>
    2d6a:	48 8b 43 10          	mov    0x10(%rbx),%rax
    2d6e:	48 8d b8 44 08 00 00 	lea    0x844(%rax),%rdi
    2d75:	e8 00 00 00 00       	callq  2d7a <qdma_program_ctxt+0x7a>
    2d7a:	a8 01                	test   $0x1,%al
    2d7c:	75 d8                	jne    2d56 <qdma_program_ctxt+0x56>
    2d7e:	41 0f b6 04 24       	movzbl (%r12),%eax
    2d83:	83 e0 60             	and    $0x60,%eax
    2d86:	3c 40                	cmp    $0x40,%al
    2d88:	0f 84 9c 00 00 00    	je     2e2a <qdma_program_ctxt+0x12a>
    2d8e:	48 c7 c7 00 00 00 00 	mov    $0x0,%rdi
    2d95:	e8 00 00 00 00       	callq  2d9a <qdma_program_ctxt+0x9a>
    2d9a:	48 83 c4 08          	add    $0x8,%rsp
    2d9e:	31 c0                	xor    %eax,%eax
    2da0:	5b                   	pop    %rbx
    2da1:	41 5c                	pop    %r12
    2da3:	41 5d                	pop    %r13
    2da5:	41 5e                	pop    %r14
    2da7:	41 5f                	pop    %r15
    2da9:	5d                   	pop    %rbp
    2daa:	c3                   	retq   
    2dab:	0f b6 45 d0          	movzbl -0x30(%rbp),%eax
    2daf:	41 bd 04 08 00 00    	mov    $0x804,%r13d
    2db5:	45 31 f6             	xor    %r14d,%r14d
    2db8:	89 45 d4             	mov    %eax,-0x2c(%rbp)
    2dbb:	48 8b 73 10          	mov    0x10(%rbx),%rsi
    2dbf:	4c 01 ee             	add    %r13,%rsi
    2dc2:	44 39 75 d4          	cmp    %r14d,-0x2c(%rbp)
    2dc6:	7e 35                	jle    2dfd <qdma_program_ctxt+0xfd>
    2dc8:	43 8b bc 2f fc f7 ff 	mov    -0x804(%r15,%r13,1),%edi
    2dcf:	ff 
    2dd0:	41 83 c6 01          	add    $0x1,%r14d
    2dd4:	e8 00 00 00 00       	callq  2dd9 <qdma_program_ctxt+0xd9>
    2dd9:	48 8b 4b 10          	mov    0x10(%rbx),%rcx
    2ddd:	bf ff ff ff ff       	mov    $0xffffffff,%edi
    2de2:	4a 8d 74 29 20       	lea    0x20(%rcx,%r13,1),%rsi
    2de7:	49 83 c5 04          	add    $0x4,%r13
    2deb:	e8 00 00 00 00       	callq  2df0 <qdma_program_ctxt+0xf0>
    2df0:	48 8b 73 10          	mov    0x10(%rbx),%rsi
    2df4:	4c 01 ee             	add    %r13,%rsi
    2df7:	44 39 75 d4          	cmp    %r14d,-0x2c(%rbp)
    2dfb:	7f cb                	jg     2dc8 <qdma_program_ctxt+0xc8>
    2dfd:	31 ff                	xor    %edi,%edi
    2dff:	41 83 c6 01          	add    $0x1,%r14d
    2e03:	e8 00 00 00 00       	callq  2e08 <qdma_program_ctxt+0x108>
    2e08:	48 8b 4b 10          	mov    0x10(%rbx),%rcx
    2e0c:	bf ff ff ff ff       	mov    $0xffffffff,%edi
    2e11:	4a 8d 74 29 20       	lea    0x20(%rcx,%r13,1),%rsi
    2e16:	49 83 c5 04          	add    $0x4,%r13
    2e1a:	e8 00 00 00 00       	callq  2e1f <qdma_program_ctxt+0x11f>
    2e1f:	41 83 fe 08          	cmp    $0x8,%r14d
    2e23:	75 96                	jne    2dbb <qdma_program_ctxt+0xbb>
    2e25:	e9 10 ff ff ff       	jmpq   2d3a <qdma_program_ctxt+0x3a>
    2e2a:	44 8b 65 d0          	mov    -0x30(%rbp),%r12d
    2e2e:	41 81 e4 ff 00 00 00 	and    $0xff,%r12d
    2e35:	75 79                	jne    2eb0 <qdma_program_ctxt+0x1b0>
    2e37:	80 7d d0 01          	cmpb   $0x1,-0x30(%rbp)
    2e3b:	77 5d                	ja     2e9a <qdma_program_ctxt+0x19a>
    2e3d:	80 7d d0 02          	cmpb   $0x2,-0x30(%rbp)
    2e41:	77 41                	ja     2e84 <qdma_program_ctxt+0x184>
    2e43:	80 7d d0 03          	cmpb   $0x3,-0x30(%rbp)
    2e47:	0f 86 41 ff ff ff    	jbe    2d8e <qdma_program_ctxt+0x8e>
    2e4d:	48 8b 43 10          	mov    0x10(%rbx),%rax
    2e51:	48 8d b8 10 08 00 00 	lea    0x810(%rax),%rdi
    2e58:	e8 00 00 00 00       	callq  2e5d <qdma_program_ctxt+0x15d>
    2e5d:	41 83 fc 05          	cmp    $0x5,%r12d
    2e61:	41 89 47 0c          	mov    %eax,0xc(%r15)
    2e65:	0f 85 23 ff ff ff    	jne    2d8e <qdma_program_ctxt+0x8e>
    2e6b:	48 8b 7b 10          	mov    0x10(%rbx),%rdi
    2e6f:	48 81 c7 14 08 00 00 	add    $0x814,%rdi
    2e76:	e8 00 00 00 00       	callq  2e7b <qdma_program_ctxt+0x17b>
    2e7b:	41 89 47 10          	mov    %eax,0x10(%r15)
    2e7f:	e9 0a ff ff ff       	jmpq   2d8e <qdma_program_ctxt+0x8e>
    2e84:	48 8b 43 10          	mov    0x10(%rbx),%rax
    2e88:	48 8d b8 0c 08 00 00 	lea    0x80c(%rax),%rdi
    2e8f:	e8 00 00 00 00       	callq  2e94 <qdma_program_ctxt+0x194>
    2e94:	41 89 47 08          	mov    %eax,0x8(%r15)
    2e98:	eb a9                	jmp    2e43 <qdma_program_ctxt+0x143>
    2e9a:	48 8b 43 10          	mov    0x10(%rbx),%rax
    2e9e:	48 8d b8 08 08 00 00 	lea    0x808(%rax),%rdi
    2ea5:	e8 00 00 00 00       	callq  2eaa <qdma_program_ctxt+0x1aa>
    2eaa:	41 89 47 04          	mov    %eax,0x4(%r15)
    2eae:	eb 8d                	jmp    2e3d <qdma_program_ctxt+0x13d>
    2eb0:	48 8b 43 10          	mov    0x10(%rbx),%rax
    2eb4:	48 8d b8 04 08 00 00 	lea    0x804(%rax),%rdi
    2ebb:	e8 00 00 00 00       	callq  2ec0 <qdma_program_ctxt+0x1c0>
    2ec0:	41 89 07             	mov    %eax,(%r15)
    2ec3:	e9 6f ff ff ff       	jmpq   2e37 <qdma_program_ctxt+0x137>
    2ec8:	48 c7 c7 00 00 00 00 	mov    $0x0,%rdi
    2ecf:	e8 00 00 00 00       	callq  2ed4 <qdma_program_ctxt+0x1d4>
    2ed4:	48 83 c4 08          	add    $0x8,%rsp
    2ed8:	b8 f0 ff ff ff       	mov    $0xfffffff0,%eax
    2edd:	5b                   	pop    %rbx
    2ede:	41 5c                	pop    %r12
    2ee0:	41 5d                	pop    %r13
    2ee2:	41 5e                	pop    %r14
    2ee4:	41 5f                	pop    %r15
    2ee6:	5d                   	pop    %rbp
    2ee7:	c3                   	retq   
    2ee8:	0f 1f 84 00 00 00 00 	nopl   0x0(%rax,%rax,1)
    2eef:	00 

0000000000002ef0 <qdma_write_sw_ctxt>:
    2ef0:	e8 00 00 00 00       	callq  2ef5 <qdma_write_sw_ctxt+0x5>
    2ef5:	55                   	push   %rbp
    2ef6:	48 89 e5             	mov    %rsp,%rbp
    2ef9:	48 83 ec 20          	sub    $0x20,%rsp
    2efd:	65 48 8b 04 25 28 00 	mov    %gs:0x28,%rax
    2f04:	00 00 
    2f06:	48 89 45 f8          	mov    %rax,-0x8(%rbp)
    2f0a:	31 c0                	xor    %eax,%eax
    2f0c:	83 fa 01             	cmp    $0x1,%edx
    2f0f:	c7 45 e0 00 00 00 00 	movl   $0x0,-0x20(%rbp)
    2f16:	0f 95 c0             	setne  %al
    2f19:	66 03 77 0a          	add    0xa(%rdi),%si
    2f1d:	01 c0                	add    %eax,%eax
    2f1f:	83 c8 20             	or     $0x20,%eax
    2f22:	88 45 e0             	mov    %al,-0x20(%rbp)
    2f25:	8b 45 e0             	mov    -0x20(%rbp),%eax
    2f28:	81 e6 ff 07 00 00    	and    $0x7ff,%esi
    2f2e:	c1 e6 07             	shl    $0x7,%esi
    2f31:	25 7f 00 fc ff       	and    $0xfffc007f,%eax
    2f36:	09 c6                	or     %eax,%esi
    2f38:	89 75 e0             	mov    %esi,-0x20(%rbp)
    2f3b:	0f b7 71 02          	movzwl 0x2(%rcx),%esi
    2f3f:	0f b6 41 02          	movzbl 0x2(%rcx),%eax
    2f43:	48 8b 51 08          	mov    0x8(%rcx),%rdx
    2f47:	66 d1 ee             	shr    %si
    2f4a:	89 55 ec             	mov    %edx,-0x14(%rbp)
    2f4d:	83 e0 01             	and    $0x1,%eax
    2f50:	40 0f b6 f6          	movzbl %sil,%esi
    2f54:	48 c1 e6 11          	shl    $0x11,%rsi
    2f58:	48 c1 e0 10          	shl    $0x10,%rax
    2f5c:	09 f0                	or     %esi,%eax
    2f5e:	0f b7 31             	movzwl (%rcx),%esi
    2f61:	09 f0                	or     %esi,%eax
    2f63:	0f b6 71 04          	movzbl 0x4(%rcx),%esi
    2f67:	89 45 e4             	mov    %eax,-0x1c(%rbp)
    2f6a:	41 89 f0             	mov    %esi,%r8d
    2f6d:	89 f0                	mov    %esi,%eax
    2f6f:	d0 e8                	shr    %al
    2f71:	41 c0 e8 02          	shr    $0x2,%r8b
    2f75:	83 e0 01             	and    $0x1,%eax
    2f78:	41 83 e0 01          	and    $0x1,%r8d
    2f7c:	49 c1 e0 02          	shl    $0x2,%r8
    2f80:	48 01 c0             	add    %rax,%rax
    2f83:	44 09 c0             	or     %r8d,%eax
    2f86:	41 89 f0             	mov    %esi,%r8d
    2f89:	41 83 e0 01          	and    $0x1,%r8d
    2f8d:	44 09 c0             	or     %r8d,%eax
    2f90:	41 89 f0             	mov    %esi,%r8d
    2f93:	41 c0 e8 03          	shr    $0x3,%r8b
    2f97:	41 83 e0 01          	and    $0x1,%r8d
    2f9b:	49 c1 e0 03          	shl    $0x3,%r8
    2f9f:	44 09 c0             	or     %r8d,%eax
    2fa2:	41 89 f0             	mov    %esi,%r8d
    2fa5:	40 c0 ee 05          	shr    $0x5,%sil
    2fa9:	41 c0 e8 04          	shr    $0x4,%r8b
    2fad:	40 0f b6 f6          	movzbl %sil,%esi
    2fb1:	41 83 e0 01          	and    $0x1,%r8d
    2fb5:	48 c1 e6 05          	shl    $0x5,%rsi
    2fb9:	49 c1 e0 04          	shl    $0x4,%r8
    2fbd:	44 09 c0             	or     %r8d,%eax
    2fc0:	09 f0                	or     %esi,%eax
    2fc2:	0f b6 71 05          	movzbl 0x5(%rcx),%esi
    2fc6:	40 c0 ee 04          	shr    $0x4,%sil
    2fca:	40 0f b6 f6          	movzbl %sil,%esi
    2fce:	48 c1 e6 0c          	shl    $0xc,%rsi
    2fd2:	09 f0                	or     %esi,%eax
    2fd4:	0f b6 71 06          	movzbl 0x6(%rcx),%esi
    2fd8:	49 89 f0             	mov    %rsi,%r8
    2fdb:	41 83 e0 03          	and    $0x3,%r8d
    2fdf:	49 c1 e0 10          	shl    $0x10,%r8
    2fe3:	44 09 c0             	or     %r8d,%eax
    2fe6:	41 89 f0             	mov    %esi,%r8d
    2fe9:	41 c0 e8 02          	shr    $0x2,%r8b
    2fed:	41 83 e0 01          	and    $0x1,%r8d
    2ff1:	49 c1 e0 12          	shl    $0x12,%r8
    2ff5:	44 09 c0             	or     %r8d,%eax
    2ff8:	41 89 f0             	mov    %esi,%r8d
    2ffb:	41 c0 e8 03          	shr    $0x3,%r8b
    2fff:	41 83 e0 01          	and    $0x1,%r8d
    3003:	49 c1 e0 13          	shl    $0x13,%r8
    3007:	44 09 c0             	or     %r8d,%eax
    300a:	41 89 f0             	mov    %esi,%r8d
    300d:	40 c0 ee 05          	shr    $0x5,%sil
    3011:	41 c0 e8 04          	shr    $0x4,%r8b
    3015:	83 e6 01             	and    $0x1,%esi
    3018:	41 83 e0 01          	and    $0x1,%r8d
    301c:	48 c1 e6 15          	shl    $0x15,%rsi
    3020:	49 c1 e0 14          	shl    $0x14,%r8
    3024:	44 09 c0             	or     %r8d,%eax
    3027:	09 f0                	or     %esi,%eax
    3029:	0f b7 71 06          	movzwl 0x6(%rcx),%esi
    302d:	66 c1 ee 06          	shr    $0x6,%si
    3031:	83 e6 07             	and    $0x7,%esi
    3034:	48 c1 e6 16          	shl    $0x16,%rsi
    3038:	09 f0                	or     %esi,%eax
    303a:	0f b6 71 07          	movzbl 0x7(%rcx),%esi
    303e:	41 89 f0             	mov    %esi,%r8d
    3041:	41 d0 e8             	shr    %r8b
    3044:	41 83 e0 01          	and    $0x1,%r8d
    3048:	49 c1 e0 19          	shl    $0x19,%r8
    304c:	44 09 c0             	or     %r8d,%eax
    304f:	41 89 f0             	mov    %esi,%r8d
    3052:	41 c0 e8 02          	shr    $0x2,%r8b
    3056:	41 83 e0 03          	and    $0x3,%r8d
    305a:	48 c1 ea 20          	shr    $0x20,%rdx
    305e:	49 c1 e0 1a          	shl    $0x1a,%r8
    3062:	89 55 f0             	mov    %edx,-0x10(%rbp)
    3065:	0f b7 51 10          	movzwl 0x10(%rcx),%edx
    3069:	44 09 c0             	or     %r8d,%eax
    306c:	41 89 f0             	mov    %esi,%r8d
    306f:	41 c0 e8 04          	shr    $0x4,%r8b
    3073:	41 83 e0 01          	and    $0x1,%r8d
    3077:	49 c1 e0 1c          	shl    $0x1c,%r8
    307b:	81 e2 ff 07 00 00    	and    $0x7ff,%edx
    3081:	44 09 c0             	or     %r8d,%eax
    3084:	41 89 f0             	mov    %esi,%r8d
    3087:	41 c0 e8 05          	shr    $0x5,%r8b
    308b:	41 83 e0 01          	and    $0x1,%r8d
    308f:	49 c1 e0 1d          	shl    $0x1d,%r8
    3093:	44 09 c0             	or     %r8d,%eax
    3096:	41 89 f0             	mov    %esi,%r8d
    3099:	40 c0 ee 07          	shr    $0x7,%sil
    309d:	41 c0 e8 06          	shr    $0x6,%r8b
    30a1:	40 0f b6 f6          	movzbl %sil,%esi
    30a5:	41 83 e0 01          	and    $0x1,%r8d
    30a9:	48 c1 e6 1f          	shl    $0x1f,%rsi
    30ad:	49 c1 e0 1e          	shl    $0x1e,%r8
    30b1:	44 09 c0             	or     %r8d,%eax
    30b4:	09 f0                	or     %esi,%eax
    30b6:	48 8d 75 e0          	lea    -0x20(%rbp),%rsi
    30ba:	89 45 e8             	mov    %eax,-0x18(%rbp)
    30bd:	0f b6 41 11          	movzbl 0x11(%rcx),%eax
    30c1:	b9 05 00 00 00       	mov    $0x5,%ecx
    30c6:	c0 e8 03             	shr    $0x3,%al
    30c9:	83 e0 01             	and    $0x1,%eax
    30cc:	48 c1 e0 0b          	shl    $0xb,%rax
    30d0:	09 d0                	or     %edx,%eax
    30d2:	48 8d 55 e4          	lea    -0x1c(%rbp),%rdx
    30d6:	89 45 f4             	mov    %eax,-0xc(%rbp)
    30d9:	e8 22 fc ff ff       	callq  2d00 <qdma_program_ctxt>
    30de:	48 8b 7d f8          	mov    -0x8(%rbp),%rdi
    30e2:	65 48 33 3c 25 28 00 	xor    %gs:0x28,%rdi
    30e9:	00 00 
    30eb:	75 02                	jne    30ef <qdma_write_sw_ctxt+0x1ff>
    30ed:	c9                   	leaveq 
    30ee:	c3                   	retq   
    30ef:	e8 00 00 00 00       	callq  30f4 <qdma_write_sw_ctxt+0x204>
    30f4:	66 90                	xchg   %ax,%ax
    30f6:	66 2e 0f 1f 84 00 00 	nopw   %cs:0x0(%rax,%rax,1)
    30fd:	00 00 00 

0000000000003100 <qdma_clear_sw_ctxt>:
    3100:	e8 00 00 00 00       	callq  3105 <qdma_clear_sw_ctxt+0x5>
    3105:	55                   	push   %rbp
    3106:	48 89 e5             	mov    %rsp,%rbp
    3109:	48 83 ec 10          	sub    $0x10,%rsp
    310d:	65 48 8b 04 25 28 00 	mov    %gs:0x28,%rax
    3114:	00 00 
    3116:	48 89 45 f8          	mov    %rax,-0x8(%rbp)
    311a:	31 c0                	xor    %eax,%eax
    311c:	83 fa 01             	cmp    $0x1,%edx
    311f:	c7 45 f4 00 00 00 00 	movl   $0x0,-0xc(%rbp)
    3126:	0f 95 c0             	setne  %al
    3129:	66 03 77 0a          	add    0xa(%rdi),%si
    312d:	31 c9                	xor    %ecx,%ecx
    312f:	01 c0                	add    %eax,%eax
    3131:	31 d2                	xor    %edx,%edx
    3133:	88 45 f4             	mov    %al,-0xc(%rbp)
    3136:	8b 45 f4             	mov    -0xc(%rbp),%eax
    3139:	81 e6 ff 07 00 00    	and    $0x7ff,%esi
    313f:	25 7f 00 fc ff       	and    $0xfffc007f,%eax
    3144:	c1 e6 07             	shl    $0x7,%esi
    3147:	09 c6                	or     %eax,%esi
    3149:	89 75 f4             	mov    %esi,-0xc(%rbp)
    314c:	48 8d 75 f4          	lea    -0xc(%rbp),%rsi
    3150:	e8 ab fb ff ff       	callq  2d00 <qdma_program_ctxt>
    3155:	48 8b 4d f8          	mov    -0x8(%rbp),%rcx
    3159:	65 48 33 0c 25 28 00 	xor    %gs:0x28,%rcx
    3160:	00 00 
    3162:	75 02                	jne    3166 <qdma_clear_sw_ctxt+0x66>
    3164:	c9                   	leaveq 
    3165:	c3                   	retq   
    3166:	e8 00 00 00 00       	callq  316b <qdma_clear_sw_ctxt+0x6b>
    316b:	0f 1f 44 00 00       	nopl   0x0(%rax,%rax,1)

0000000000003170 <qdma_invalidate_sw_ctxt>:
    3170:	e8 00 00 00 00       	callq  3175 <qdma_invalidate_sw_ctxt+0x5>
    3175:	55                   	push   %rbp
    3176:	48 89 e5             	mov    %rsp,%rbp
    3179:	48 83 ec 10          	sub    $0x10,%rsp
    317d:	65 48 8b 04 25 28 00 	mov    %gs:0x28,%rax
    3184:	00 00 
    3186:	48 89 45 f8          	mov    %rax,-0x8(%rbp)
    318a:	31 c0                	xor    %eax,%eax
    318c:	83 fa 01             	cmp    $0x1,%edx
    318f:	c7 45 f4 00 00 00 00 	movl   $0x0,-0xc(%rbp)
    3196:	0f 95 c0             	setne  %al
    3199:	66 03 77 0a          	add    0xa(%rdi),%si
    319d:	31 c9                	xor    %ecx,%ecx
    319f:	01 c0                	add    %eax,%eax
    31a1:	31 d2                	xor    %edx,%edx
    31a3:	83 c8 60             	or     $0x60,%eax
    31a6:	88 45 f4             	mov    %al,-0xc(%rbp)
    31a9:	8b 45 f4             	mov    -0xc(%rbp),%eax
    31ac:	81 e6 ff 07 00 00    	and    $0x7ff,%esi
    31b2:	c1 e6 07             	shl    $0x7,%esi
    31b5:	25 7f 00 fc ff       	and    $0xfffc007f,%eax
    31ba:	09 c6                	or     %eax,%esi
    31bc:	89 75 f4             	mov    %esi,-0xc(%rbp)
    31bf:	48 8d 75 f4          	lea    -0xc(%rbp),%rsi
    31c3:	e8 38 fb ff ff       	callq  2d00 <qdma_program_ctxt>
    31c8:	48 8b 4d f8          	mov    -0x8(%rbp),%rcx
    31cc:	65 48 33 0c 25 28 00 	xor    %gs:0x28,%rcx
    31d3:	00 00 
    31d5:	75 02                	jne    31d9 <qdma_invalidate_sw_ctxt+0x69>
    31d7:	c9                   	leaveq 
    31d8:	c3                   	retq   
    31d9:	e8 00 00 00 00       	callq  31de <qdma_invalidate_sw_ctxt+0x6e>
    31de:	66 90                	xchg   %ax,%ax

00000000000031e0 <qdma_clear_hw_ctxt>:
    31e0:	e8 00 00 00 00       	callq  31e5 <qdma_clear_hw_ctxt+0x5>
    31e5:	55                   	push   %rbp
    31e6:	48 89 e5             	mov    %rsp,%rbp
    31e9:	48 83 ec 10          	sub    $0x10,%rsp
    31ed:	65 48 8b 04 25 28 00 	mov    %gs:0x28,%rax
    31f4:	00 00 
    31f6:	48 89 45 f8          	mov    %rax,-0x8(%rbp)
    31fa:	31 c0                	xor    %eax,%eax
    31fc:	83 fa 01             	cmp    $0x1,%edx
    31ff:	c7 45 f4 00 00 00 00 	movl   $0x0,-0xc(%rbp)
    3206:	0f 95 c0             	setne  %al
    3209:	66 03 77 0a          	add    0xa(%rdi),%si
    320d:	31 c9                	xor    %ecx,%ecx
    320f:	83 c0 02             	add    $0x2,%eax
    3212:	31 d2                	xor    %edx,%edx
    3214:	01 c0                	add    %eax,%eax
    3216:	88 45 f4             	mov    %al,-0xc(%rbp)
    3219:	8b 45 f4             	mov    -0xc(%rbp),%eax
    321c:	81 e6 ff 07 00 00    	and    $0x7ff,%esi
    3222:	c1 e6 07             	shl    $0x7,%esi
    3225:	25 7f 00 fc ff       	and    $0xfffc007f,%eax
    322a:	09 c6                	or     %eax,%esi
    322c:	89 75 f4             	mov    %esi,-0xc(%rbp)
    322f:	48 8d 75 f4          	lea    -0xc(%rbp),%rsi
    3233:	e8 c8 fa ff ff       	callq  2d00 <qdma_program_ctxt>
    3238:	48 8b 4d f8          	mov    -0x8(%rbp),%rcx
    323c:	65 48 33 0c 25 28 00 	xor    %gs:0x28,%rcx
    3243:	00 00 
    3245:	75 02                	jne    3249 <qdma_clear_hw_ctxt+0x69>
    3247:	c9                   	leaveq 
    3248:	c3                   	retq   
    3249:	e8 00 00 00 00       	callq  324e <qdma_clear_hw_ctxt+0x6e>
    324e:	66 90                	xchg   %ax,%ax

0000000000003250 <qdma_invalidate_hw_ctxt>:
    3250:	e8 00 00 00 00       	callq  3255 <qdma_invalidate_hw_ctxt+0x5>
    3255:	55                   	push   %rbp
    3256:	48 89 e5             	mov    %rsp,%rbp
    3259:	48 83 ec 10          	sub    $0x10,%rsp
    325d:	65 48 8b 04 25 28 00 	mov    %gs:0x28,%rax
    3264:	00 00 
    3266:	48 89 45 f8          	mov    %rax,-0x8(%rbp)
    326a:	31 c0                	xor    %eax,%eax
    326c:	83 fa 01             	cmp    $0x1,%edx
    326f:	c7 45 f4 00 00 00 00 	movl   $0x0,-0xc(%rbp)
    3276:	0f 95 c0             	setne  %al
    3279:	66 03 77 0a          	add    0xa(%rdi),%si
    327d:	31 c9                	xor    %ecx,%ecx
    327f:	83 c0 02             	add    $0x2,%eax
    3282:	31 d2                	xor    %edx,%edx
    3284:	01 c0                	add    %eax,%eax
    3286:	83 c8 60             	or     $0x60,%eax
    3289:	88 45 f4             	mov    %al,-0xc(%rbp)
    328c:	8b 45 f4             	mov    -0xc(%rbp),%eax
    328f:	81 e6 ff 07 00 00    	and    $0x7ff,%esi
    3295:	c1 e6 07             	shl    $0x7,%esi
    3298:	25 7f 00 fc ff       	and    $0xfffc007f,%eax
    329d:	09 c6                	or     %eax,%esi
    329f:	89 75 f4             	mov    %esi,-0xc(%rbp)
    32a2:	48 8d 75 f4          	lea    -0xc(%rbp),%rsi
    32a6:	e8 55 fa ff ff       	callq  2d00 <qdma_program_ctxt>
    32ab:	48 8b 4d f8          	mov    -0x8(%rbp),%rcx
    32af:	65 48 33 0c 25 28 00 	xor    %gs:0x28,%rcx
    32b6:	00 00 
    32b8:	75 02                	jne    32bc <qdma_invalidate_hw_ctxt+0x6c>
    32ba:	c9                   	leaveq 
    32bb:	c3                   	retq   
    32bc:	e8 00 00 00 00       	callq  32c1 <qdma_invalidate_hw_ctxt+0x71>
    32c1:	0f 1f 44 00 00       	nopl   0x0(%rax,%rax,1)
    32c6:	66 2e 0f 1f 84 00 00 	nopw   %cs:0x0(%rax,%rax,1)
    32cd:	00 00 00 

00000000000032d0 <qdma_clear_cr_ctxt>:
    32d0:	e8 00 00 00 00       	callq  32d5 <qdma_clear_cr_ctxt+0x5>
    32d5:	55                   	push   %rbp
    32d6:	48 89 e5             	mov    %rsp,%rbp
    32d9:	48 83 ec 10          	sub    $0x10,%rsp
    32dd:	65 48 8b 04 25 28 00 	mov    %gs:0x28,%rax
    32e4:	00 00 
    32e6:	48 89 45 f8          	mov    %rax,-0x8(%rbp)
    32ea:	31 c0                	xor    %eax,%eax
    32ec:	83 fa 01             	cmp    $0x1,%edx
    32ef:	c7 45 f4 00 00 00 00 	movl   $0x0,-0xc(%rbp)
    32f6:	0f 95 c0             	setne  %al
    32f9:	66 03 77 0a          	add    0xa(%rdi),%si
    32fd:	31 c9                	xor    %ecx,%ecx
    32ff:	83 c0 04             	add    $0x4,%eax
    3302:	31 d2                	xor    %edx,%edx
    3304:	01 c0                	add    %eax,%eax
    3306:	88 45 f4             	mov    %al,-0xc(%rbp)
    3309:	8b 45 f4             	mov    -0xc(%rbp),%eax
    330c:	81 e6 ff 07 00 00    	and    $0x7ff,%esi
    3312:	c1 e6 07             	shl    $0x7,%esi
    3315:	25 7f 00 fc ff       	and    $0xfffc007f,%eax
    331a:	09 c6                	or     %eax,%esi
    331c:	89 75 f4             	mov    %esi,-0xc(%rbp)
    331f:	48 8d 75 f4          	lea    -0xc(%rbp),%rsi
    3323:	e8 d8 f9 ff ff       	callq  2d00 <qdma_program_ctxt>
    3328:	48 8b 4d f8          	mov    -0x8(%rbp),%rcx
    332c:	65 48 33 0c 25 28 00 	xor    %gs:0x28,%rcx
    3333:	00 00 
    3335:	75 02                	jne    3339 <qdma_clear_cr_ctxt+0x69>
    3337:	c9                   	leaveq 
    3338:	c3                   	retq   
    3339:	e8 00 00 00 00       	callq  333e <qdma_clear_cr_ctxt+0x6e>
    333e:	66 90                	xchg   %ax,%ax

0000000000003340 <qdma_invalidate_cr_ctxt>:
    3340:	e8 00 00 00 00       	callq  3345 <qdma_invalidate_cr_ctxt+0x5>
    3345:	55                   	push   %rbp
    3346:	48 89 e5             	mov    %rsp,%rbp
    3349:	48 83 ec 10          	sub    $0x10,%rsp
    334d:	65 48 8b 04 25 28 00 	mov    %gs:0x28,%rax
    3354:	00 00 
    3356:	48 89 45 f8          	mov    %rax,-0x8(%rbp)
    335a:	31 c0                	xor    %eax,%eax
    335c:	83 fa 01             	cmp    $0x1,%edx
    335f:	c7 45 f4 00 00 00 00 	movl   $0x0,-0xc(%rbp)
    3366:	0f 95 c0             	setne  %al
    3369:	66 03 77 0a          	add    0xa(%rdi),%si
    336d:	31 c9                	xor    %ecx,%ecx
    336f:	83 c0 04             	add    $0x4,%eax
    3372:	31 d2                	xor    %edx,%edx
    3374:	01 c0                	add    %eax,%eax
    3376:	83 c8 60             	or     $0x60,%eax
    3379:	88 45 f4             	mov    %al,-0xc(%rbp)
    337c:	8b 45 f4             	mov    -0xc(%rbp),%eax
    337f:	81 e6 ff 07 00 00    	and    $0x7ff,%esi
    3385:	c1 e6 07             	shl    $0x7,%esi
    3388:	25 7f 00 fc ff       	and    $0xfffc007f,%eax
    338d:	09 c6                	or     %eax,%esi
    338f:	89 75 f4             	mov    %esi,-0xc(%rbp)
    3392:	48 8d 75 f4          	lea    -0xc(%rbp),%rsi
    3396:	e8 65 f9 ff ff       	callq  2d00 <qdma_program_ctxt>
    339b:	48 8b 4d f8          	mov    -0x8(%rbp),%rcx
    339f:	65 48 33 0c 25 28 00 	xor    %gs:0x28,%rcx
    33a6:	00 00 
    33a8:	75 02                	jne    33ac <qdma_invalidate_cr_ctxt+0x6c>
    33aa:	c9                   	leaveq 
    33ab:	c3                   	retq   
    33ac:	e8 00 00 00 00       	callq  33b1 <qdma_invalidate_cr_ctxt+0x71>
    33b1:	0f 1f 44 00 00       	nopl   0x0(%rax,%rax,1)
    33b6:	66 2e 0f 1f 84 00 00 	nopw   %cs:0x0(%rax,%rax,1)
    33bd:	00 00 00 

00000000000033c0 <qdma_write_pfch_ctxt>:
    33c0:	e8 00 00 00 00       	callq  33c5 <qdma_write_pfch_ctxt+0x5>
    33c5:	55                   	push   %rbp
    33c6:	48 89 e5             	mov    %rsp,%rbp
    33c9:	48 83 ec 18          	sub    $0x18,%rsp
    33cd:	66 03 77 0a          	add    0xa(%rdi),%si
    33d1:	65 48 8b 04 25 28 00 	mov    %gs:0x28,%rax
    33d8:	00 00 
    33da:	48 89 45 f8          	mov    %rax,-0x8(%rbp)
    33de:	31 c0                	xor    %eax,%eax
    33e0:	81 e6 ff 07 00 00    	and    $0x7ff,%esi
    33e6:	c1 e6 07             	shl    $0x7,%esi
    33e9:	83 ce 2e             	or     $0x2e,%esi
    33ec:	89 75 ec             	mov    %esi,-0x14(%rbp)
    33ef:	44 0f b6 02          	movzbl (%rdx),%r8d
    33f3:	0f b7 72 04          	movzwl 0x4(%rdx),%esi
    33f7:	44 89 c0             	mov    %r8d,%eax
    33fa:	d0 e8                	shr    %al
    33fc:	48 89 c1             	mov    %rax,%rcx
    33ff:	83 e1 0f             	and    $0xf,%ecx
    3402:	48 8d 04 09          	lea    (%rcx,%rcx,1),%rax
    3406:	44 89 c1             	mov    %r8d,%ecx
    3409:	41 83 e0 01          	and    $0x1,%r8d
    340d:	c0 e9 05             	shr    $0x5,%cl
    3410:	0f b6 c9             	movzbl %cl,%ecx
    3413:	48 c1 e1 05          	shl    $0x5,%rcx
    3417:	09 c8                	or     %ecx,%eax
    3419:	0f b6 4a 03          	movzbl 0x3(%rdx),%ecx
    341d:	44 09 c0             	or     %r8d,%eax
    3420:	41 89 c8             	mov    %ecx,%r8d
    3423:	41 c0 e8 02          	shr    $0x2,%r8b
    3427:	41 83 e0 01          	and    $0x1,%r8d
    342b:	49 c1 e0 1a          	shl    $0x1a,%r8
    342f:	44 09 c0             	or     %r8d,%eax
    3432:	41 89 c8             	mov    %ecx,%r8d
    3435:	c0 e9 04             	shr    $0x4,%cl
    3438:	41 c0 e8 03          	shr    $0x3,%r8b
    343c:	83 e1 01             	and    $0x1,%ecx
    343f:	41 83 e0 01          	and    $0x1,%r8d
    3443:	48 c1 e1 1c          	shl    $0x1c,%rcx
    3447:	49 c1 e0 1b          	shl    $0x1b,%r8
    344b:	44 09 c0             	or     %r8d,%eax
    344e:	09 c8                	or     %ecx,%eax
    3450:	89 f1                	mov    %esi,%ecx
    3452:	81 e6 f8 ff 00 00    	and    $0xfff8,%esi
    3458:	c1 e1 1d             	shl    $0x1d,%ecx
    345b:	48 c1 ee 03          	shr    $0x3,%rsi
    345f:	09 c8                	or     %ecx,%eax
    3461:	b9 02 00 00 00       	mov    $0x2,%ecx
    3466:	89 45 f0             	mov    %eax,-0x10(%rbp)
    3469:	0f b6 42 06          	movzbl 0x6(%rdx),%eax
    346d:	48 8d 55 f0          	lea    -0x10(%rbp),%rdx
    3471:	83 e0 01             	and    $0x1,%eax
    3474:	48 c1 e0 0d          	shl    $0xd,%rax
    3478:	09 c6                	or     %eax,%esi
    347a:	89 75 f4             	mov    %esi,-0xc(%rbp)
    347d:	48 8d 75 ec          	lea    -0x14(%rbp),%rsi
    3481:	e8 7a f8 ff ff       	callq  2d00 <qdma_program_ctxt>
    3486:	48 8b 7d f8          	mov    -0x8(%rbp),%rdi
    348a:	65 48 33 3c 25 28 00 	xor    %gs:0x28,%rdi
    3491:	00 00 
    3493:	75 02                	jne    3497 <qdma_write_pfch_ctxt+0xd7>
    3495:	c9                   	leaveq 
    3496:	c3                   	retq   
    3497:	e8 00 00 00 00       	callq  349c <qdma_write_pfch_ctxt+0xdc>
    349c:	0f 1f 40 00          	nopl   0x0(%rax)

00000000000034a0 <qdma_clear_pfch_ctxt>:
    34a0:	e8 00 00 00 00       	callq  34a5 <qdma_clear_pfch_ctxt+0x5>
    34a5:	55                   	push   %rbp
    34a6:	31 c9                	xor    %ecx,%ecx
    34a8:	31 d2                	xor    %edx,%edx
    34aa:	48 89 e5             	mov    %rsp,%rbp
    34ad:	48 83 ec 10          	sub    $0x10,%rsp
    34b1:	66 03 77 0a          	add    0xa(%rdi),%si
    34b5:	65 48 8b 04 25 28 00 	mov    %gs:0x28,%rax
    34bc:	00 00 
    34be:	48 89 45 f8          	mov    %rax,-0x8(%rbp)
    34c2:	31 c0                	xor    %eax,%eax
    34c4:	81 e6 ff 07 00 00    	and    $0x7ff,%esi
    34ca:	c1 e6 07             	shl    $0x7,%esi
    34cd:	83 ce 0e             	or     $0xe,%esi
    34d0:	89 75 f4             	mov    %esi,-0xc(%rbp)
    34d3:	48 8d 75 f4          	lea    -0xc(%rbp),%rsi
    34d7:	e8 24 f8 ff ff       	callq  2d00 <qdma_program_ctxt>
    34dc:	48 8b 55 f8          	mov    -0x8(%rbp),%rdx
    34e0:	65 48 33 14 25 28 00 	xor    %gs:0x28,%rdx
    34e7:	00 00 
    34e9:	75 02                	jne    34ed <qdma_clear_pfch_ctxt+0x4d>
    34eb:	c9                   	leaveq 
    34ec:	c3                   	retq   
    34ed:	e8 00 00 00 00       	callq  34f2 <qdma_clear_pfch_ctxt+0x52>
    34f2:	0f 1f 40 00          	nopl   0x0(%rax)
    34f6:	66 2e 0f 1f 84 00 00 	nopw   %cs:0x0(%rax,%rax,1)
    34fd:	00 00 00 

0000000000003500 <qdma_invalidate_pfch_ctxt>:
    3500:	e8 00 00 00 00       	callq  3505 <qdma_invalidate_pfch_ctxt+0x5>
    3505:	55                   	push   %rbp
    3506:	31 c9                	xor    %ecx,%ecx
    3508:	31 d2                	xor    %edx,%edx
    350a:	48 89 e5             	mov    %rsp,%rbp
    350d:	48 83 ec 10          	sub    $0x10,%rsp
    3511:	66 03 77 0a          	add    0xa(%rdi),%si
    3515:	65 48 8b 04 25 28 00 	mov    %gs:0x28,%rax
    351c:	00 00 
    351e:	48 89 45 f8          	mov    %rax,-0x8(%rbp)
    3522:	31 c0                	xor    %eax,%eax
    3524:	81 e6 ff 07 00 00    	and    $0x7ff,%esi
    352a:	c1 e6 07             	shl    $0x7,%esi
    352d:	83 ce 6e             	or     $0x6e,%esi
    3530:	89 75 f4             	mov    %esi,-0xc(%rbp)
    3533:	48 8d 75 f4          	lea    -0xc(%rbp),%rsi
    3537:	e8 c4 f7 ff ff       	callq  2d00 <qdma_program_ctxt>
    353c:	48 8b 55 f8          	mov    -0x8(%rbp),%rdx
    3540:	65 48 33 14 25 28 00 	xor    %gs:0x28,%rdx
    3547:	00 00 
    3549:	75 02                	jne    354d <qdma_invalidate_pfch_ctxt+0x4d>
    354b:	c9                   	leaveq 
    354c:	c3                   	retq   
    354d:	e8 00 00 00 00       	callq  3552 <qdma_invalidate_pfch_ctxt+0x52>
    3552:	0f 1f 40 00          	nopl   0x0(%rax)
    3556:	66 2e 0f 1f 84 00 00 	nopw   %cs:0x0(%rax,%rax,1)
    355d:	00 00 00 

0000000000003560 <qdma_write_cmpl_ctxt>:
    3560:	e8 00 00 00 00       	callq  3565 <qdma_write_cmpl_ctxt+0x5>
    3565:	55                   	push   %rbp
    3566:	48 89 e5             	mov    %rsp,%rbp
    3569:	48 83 ec 20          	sub    $0x20,%rsp
    356d:	66 03 77 0a          	add    0xa(%rdi),%si
    3571:	65 48 8b 04 25 28 00 	mov    %gs:0x28,%rax
    3578:	00 00 
    357a:	48 89 45 f8          	mov    %rax,-0x8(%rbp)
    357e:	31 c0                	xor    %eax,%eax
    3580:	81 e6 ff 07 00 00    	and    $0x7ff,%esi
    3586:	c1 e6 07             	shl    $0x7,%esi
    3589:	83 ce 2c             	or     $0x2c,%esi
    358c:	89 75 e0             	mov    %esi,-0x20(%rbp)
    358f:	44 0f b6 0a          	movzbl (%rdx),%r9d
    3593:	8b 72 10             	mov    0x10(%rdx),%esi
    3596:	4c 8b 42 08          	mov    0x8(%rdx),%r8
    359a:	44 89 c8             	mov    %r9d,%eax
    359d:	c1 ee 02             	shr    $0x2,%esi
    35a0:	d0 e8                	shr    %al
    35a2:	48 89 c1             	mov    %rax,%rcx
    35a5:	83 e1 01             	and    $0x1,%ecx
    35a8:	48 8d 04 09          	lea    (%rcx,%rcx,1),%rax
    35ac:	44 89 c9             	mov    %r9d,%ecx
    35af:	41 83 e1 01          	and    $0x1,%r9d
    35b3:	c0 e9 02             	shr    $0x2,%cl
    35b6:	83 e1 07             	and    $0x7,%ecx
    35b9:	48 c1 e1 02          	shl    $0x2,%rcx
    35bd:	09 c8                	or     %ecx,%eax
    35bf:	0f b7 0a             	movzwl (%rdx),%ecx
    35c2:	44 09 c8             	or     %r9d,%eax
    35c5:	81 e1 e0 1f 00 00    	and    $0x1fe0,%ecx
    35cb:	09 c8                	or     %ecx,%eax
    35cd:	0f b6 4a 02          	movzbl 0x2(%rdx),%ecx
    35d1:	d0 e9                	shr    %cl
    35d3:	83 e1 0f             	and    $0xf,%ecx
    35d6:	48 c1 e1 11          	shl    $0x11,%rcx
    35da:	09 c8                	or     %ecx,%eax
    35dc:	0f b7 4a 02          	movzwl 0x2(%rdx),%ecx
    35e0:	66 c1 e9 05          	shr    $0x5,%cx
    35e4:	83 e1 0f             	and    $0xf,%ecx
    35e7:	48 c1 e1 15          	shl    $0x15,%rcx
    35eb:	09 c8                	or     %ecx,%eax
    35ed:	0f b6 4a 03          	movzbl 0x3(%rdx),%ecx
    35f1:	41 89 c9             	mov    %ecx,%r9d
    35f4:	41 d0 e9             	shr    %r9b
    35f7:	41 83 e1 03          	and    $0x3,%r9d
    35fb:	49 c1 e1 19          	shl    $0x19,%r9
    35ff:	44 09 c8             	or     %r9d,%eax
    3602:	41 89 c9             	mov    %ecx,%r9d
    3605:	41 c0 e9 03          	shr    $0x3,%r9b
    3609:	41 83 e1 01          	and    $0x1,%r9d
    360d:	49 c1 e1 1b          	shl    $0x1b,%r9
    3611:	44 09 c8             	or     %r9d,%eax
    3614:	c0 e9 04             	shr    $0x4,%cl
    3617:	c1 e1 1c             	shl    $0x1c,%ecx
    361a:	09 c8                	or     %ecx,%eax
    361c:	0f b6 4a 16          	movzbl 0x16(%rdx),%ecx
    3620:	89 45 e4             	mov    %eax,-0x1c(%rbp)
    3623:	4c 89 c0             	mov    %r8,%rax
    3626:	49 c1 e8 26          	shr    $0x26,%r8
    362a:	48 c1 e8 0c          	shr    $0xc,%rax
    362e:	48 c1 e0 06          	shl    $0x6,%rax
    3632:	89 45 e8             	mov    %eax,-0x18(%rbp)
    3635:	0f b6 42 10          	movzbl 0x10(%rdx),%eax
    3639:	83 e0 03             	and    $0x3,%eax
    363c:	48 c1 e0 1a          	shl    $0x1a,%rax
    3640:	41 09 c0             	or     %eax,%r8d
    3643:	89 f0                	mov    %esi,%eax
    3645:	81 e6 f0 ff 00 00    	and    $0xfff0,%esi
    364b:	c1 e0 1c             	shl    $0x1c,%eax
    364e:	48 c1 ee 04          	shr    $0x4,%rsi
    3652:	41 09 c0             	or     %eax,%r8d
    3655:	0f b7 42 14          	movzwl 0x14(%rdx),%eax
    3659:	44 89 45 ec          	mov    %r8d,-0x14(%rbp)
    365d:	49 89 c8             	mov    %rcx,%r8
    3660:	41 83 e0 01          	and    $0x1,%r8d
    3664:	49 c1 e0 1c          	shl    $0x1c,%r8
    3668:	48 c1 e0 0c          	shl    $0xc,%rax
    366c:	44 09 c0             	or     %r8d,%eax
    366f:	41 89 c8             	mov    %ecx,%r8d
    3672:	41 d0 e8             	shr    %r8b
    3675:	41 83 e0 03          	and    $0x3,%r8d
    3679:	49 c1 e0 1d          	shl    $0x1d,%r8
    367d:	44 09 c0             	or     %r8d,%eax
    3680:	41 89 c8             	mov    %ecx,%r8d
    3683:	41 c0 e8 03          	shr    $0x3,%r8b
    3687:	41 83 e0 01          	and    $0x1,%r8d
    368b:	49 c1 e0 1f          	shl    $0x1f,%r8
    368f:	44 09 c0             	or     %r8d,%eax
    3692:	09 f0                	or     %esi,%eax
    3694:	89 ce                	mov    %ecx,%esi
    3696:	89 45 f0             	mov    %eax,-0x10(%rbp)
    3699:	89 c8                	mov    %ecx,%eax
    369b:	40 c0 ee 06          	shr    $0x6,%sil
    369f:	c0 e8 05             	shr    $0x5,%al
    36a2:	83 e6 01             	and    $0x1,%esi
    36a5:	83 e0 01             	and    $0x1,%eax
    36a8:	48 01 c0             	add    %rax,%rax
    36ab:	48 c1 e6 02          	shl    $0x2,%rsi
    36af:	09 f0                	or     %esi,%eax
    36b1:	89 ce                	mov    %ecx,%esi
    36b3:	c0 e9 07             	shr    $0x7,%cl
    36b6:	40 c0 ee 04          	shr    $0x4,%sil
    36ba:	0f b6 c9             	movzbl %cl,%ecx
    36bd:	83 e6 01             	and    $0x1,%esi
    36c0:	48 c1 e1 03          	shl    $0x3,%rcx
    36c4:	09 f0                	or     %esi,%eax
    36c6:	48 8d 75 e0          	lea    -0x20(%rbp),%rsi
    36ca:	09 c8                	or     %ecx,%eax
    36cc:	0f b7 4a 18          	movzwl 0x18(%rdx),%ecx
    36d0:	0f b6 52 19          	movzbl 0x19(%rdx),%edx
    36d4:	81 e1 ff 07 00 00    	and    $0x7ff,%ecx
    36da:	c0 ea 03             	shr    $0x3,%dl
    36dd:	48 c1 e1 04          	shl    $0x4,%rcx
    36e1:	83 e2 01             	and    $0x1,%edx
    36e4:	09 c8                	or     %ecx,%eax
    36e6:	48 c1 e2 0f          	shl    $0xf,%rdx
    36ea:	b9 05 00 00 00       	mov    $0x5,%ecx
    36ef:	09 d0                	or     %edx,%eax
    36f1:	48 8d 55 e4          	lea    -0x1c(%rbp),%rdx
    36f5:	89 45 f4             	mov    %eax,-0xc(%rbp)
    36f8:	e8 03 f6 ff ff       	callq  2d00 <qdma_program_ctxt>
    36fd:	48 8b 7d f8          	mov    -0x8(%rbp),%rdi
    3701:	65 48 33 3c 25 28 00 	xor    %gs:0x28,%rdi
    3708:	00 00 
    370a:	75 02                	jne    370e <qdma_write_cmpl_ctxt+0x1ae>
    370c:	c9                   	leaveq 
    370d:	c3                   	retq   
    370e:	e8 00 00 00 00       	callq  3713 <qdma_write_cmpl_ctxt+0x1b3>
    3713:	0f 1f 00             	nopl   (%rax)
    3716:	66 2e 0f 1f 84 00 00 	nopw   %cs:0x0(%rax,%rax,1)
    371d:	00 00 00 

0000000000003720 <qdma_clear_cmpl_ctxt>:
    3720:	e8 00 00 00 00       	callq  3725 <qdma_clear_cmpl_ctxt+0x5>
    3725:	55                   	push   %rbp
    3726:	31 c9                	xor    %ecx,%ecx
    3728:	31 d2                	xor    %edx,%edx
    372a:	48 89 e5             	mov    %rsp,%rbp
    372d:	48 83 ec 10          	sub    $0x10,%rsp
    3731:	66 03 77 0a          	add    0xa(%rdi),%si
    3735:	65 48 8b 04 25 28 00 	mov    %gs:0x28,%rax
    373c:	00 00 
    373e:	48 89 45 f8          	mov    %rax,-0x8(%rbp)
    3742:	31 c0                	xor    %eax,%eax
    3744:	81 e6 ff 07 00 00    	and    $0x7ff,%esi
    374a:	c1 e6 07             	shl    $0x7,%esi
    374d:	83 ce 0c             	or     $0xc,%esi
    3750:	89 75 f4             	mov    %esi,-0xc(%rbp)
    3753:	48 8d 75 f4          	lea    -0xc(%rbp),%rsi
    3757:	e8 a4 f5 ff ff       	callq  2d00 <qdma_program_ctxt>
    375c:	48 8b 55 f8          	mov    -0x8(%rbp),%rdx
    3760:	65 48 33 14 25 28 00 	xor    %gs:0x28,%rdx
    3767:	00 00 
    3769:	75 02                	jne    376d <qdma_clear_cmpl_ctxt+0x4d>
    376b:	c9                   	leaveq 
    376c:	c3                   	retq   
    376d:	e8 00 00 00 00       	callq  3772 <qdma_clear_cmpl_ctxt+0x52>
    3772:	0f 1f 40 00          	nopl   0x0(%rax)
    3776:	66 2e 0f 1f 84 00 00 	nopw   %cs:0x0(%rax,%rax,1)
    377d:	00 00 00 

0000000000003780 <qdma_invalidate_cmpl_ctxt>:
    3780:	e8 00 00 00 00       	callq  3785 <qdma_invalidate_cmpl_ctxt+0x5>
    3785:	55                   	push   %rbp
    3786:	31 c9                	xor    %ecx,%ecx
    3788:	31 d2                	xor    %edx,%edx
    378a:	48 89 e5             	mov    %rsp,%rbp
    378d:	48 83 ec 10          	sub    $0x10,%rsp
    3791:	66 03 77 0a          	add    0xa(%rdi),%si
    3795:	65 48 8b 04 25 28 00 	mov    %gs:0x28,%rax
    379c:	00 00 
    379e:	48 89 45 f8          	mov    %rax,-0x8(%rbp)
    37a2:	31 c0                	xor    %eax,%eax
    37a4:	81 e6 ff 07 00 00    	and    $0x7ff,%esi
    37aa:	c1 e6 07             	shl    $0x7,%esi
    37ad:	83 ce 6c             	or     $0x6c,%esi
    37b0:	89 75 f4             	mov    %esi,-0xc(%rbp)
    37b3:	48 8d 75 f4          	lea    -0xc(%rbp),%rsi
    37b7:	e8 44 f5 ff ff       	callq  2d00 <qdma_program_ctxt>
    37bc:	48 8b 55 f8          	mov    -0x8(%rbp),%rdx
    37c0:	65 48 33 14 25 28 00 	xor    %gs:0x28,%rdx
    37c7:	00 00 
    37c9:	75 02                	jne    37cd <qdma_invalidate_cmpl_ctxt+0x4d>
    37cb:	c9                   	leaveq 
    37cc:	c3                   	retq   
    37cd:	e8 00 00 00 00       	callq  37d2 <qdma_invalidate_cmpl_ctxt+0x52>
    37d2:	0f 1f 40 00          	nopl   0x0(%rax)
    37d6:	66 2e 0f 1f 84 00 00 	nopw   %cs:0x0(%rax,%rax,1)
    37dd:	00 00 00 

00000000000037e0 <qdma_write_fmap_ctxt>:
    37e0:	e8 00 00 00 00       	callq  37e5 <qdma_write_fmap_ctxt+0x5>
    37e5:	55                   	push   %rbp
    37e6:	b9 02 00 00 00       	mov    $0x2,%ecx
    37eb:	48 89 e5             	mov    %rsp,%rbp
    37ee:	41 54                	push   %r12
    37f0:	53                   	push   %rbx
    37f1:	49 89 f4             	mov    %rsi,%r12
    37f4:	48 8d 55 e0          	lea    -0x20(%rbp),%rdx
    37f8:	48 89 fb             	mov    %rdi,%rbx
    37fb:	48 83 ec 18          	sub    $0x18,%rsp
    37ff:	65 48 8b 04 25 28 00 	mov    %gs:0x28,%rax
    3806:	00 00 
    3808:	48 89 45 e8          	mov    %rax,-0x18(%rbp)
    380c:	31 c0                	xor    %eax,%eax
    380e:	0f b7 47 08          	movzwl 0x8(%rdi),%eax
    3812:	25 ff 07 00 00       	and    $0x7ff,%eax
    3817:	c1 e0 07             	shl    $0x7,%eax
    381a:	83 c8 38             	or     $0x38,%eax
    381d:	89 45 dc             	mov    %eax,-0x24(%rbp)
    3820:	0f b7 06             	movzwl (%rsi),%eax
    3823:	25 ff 07 00 00       	and    $0x7ff,%eax
    3828:	89 45 e0             	mov    %eax,-0x20(%rbp)
    382b:	0f b7 46 04          	movzwl 0x4(%rsi),%eax
    382f:	48 8d 75 dc          	lea    -0x24(%rbp),%rsi
    3833:	25 ff 0f 00 00       	and    $0xfff,%eax
    3838:	89 45 e4             	mov    %eax,-0x1c(%rbp)
    383b:	e8 c0 f4 ff ff       	callq  2d00 <qdma_program_ctxt>
    3840:	85 c0                	test   %eax,%eax
    3842:	78 35                	js     3879 <qdma_write_fmap_ctxt+0x99>
    3844:	41 0f b7 04 24       	movzwl (%r12),%eax
    3849:	66 25 ff 07          	and    $0x7ff,%ax
    384d:	66 89 43 0a          	mov    %ax,0xa(%rbx)
    3851:	41 0f b7 44 24 04    	movzwl 0x4(%r12),%eax
    3857:	66 25 ff 0f          	and    $0xfff,%ax
    385b:	66 89 43 0c          	mov    %ax,0xc(%rbx)
    385f:	31 c0                	xor    %eax,%eax
    3861:	48 8b 4d e8          	mov    -0x18(%rbp),%rcx
    3865:	65 48 33 0c 25 28 00 	xor    %gs:0x28,%rcx
    386c:	00 00 
    386e:	75 12                	jne    3882 <qdma_write_fmap_ctxt+0xa2>
    3870:	48 83 c4 18          	add    $0x18,%rsp
    3874:	5b                   	pop    %rbx
    3875:	41 5c                	pop    %r12
    3877:	5d                   	pop    %rbp
    3878:	c3                   	retq   
    3879:	c7 43 0a 00 00 00 00 	movl   $0x0,0xa(%rbx)
    3880:	eb df                	jmp    3861 <qdma_write_fmap_ctxt+0x81>
    3882:	e8 00 00 00 00       	callq  3887 <qdma_write_fmap_ctxt+0xa7>
    3887:	66 0f 1f 84 00 00 00 	nopw   0x0(%rax,%rax,1)
    388e:	00 00 

0000000000003890 <qdma_clear_fmap_ctxt>:
    3890:	e8 00 00 00 00       	callq  3895 <qdma_clear_fmap_ctxt+0x5>
    3895:	55                   	push   %rbp
    3896:	31 c9                	xor    %ecx,%ecx
    3898:	31 d2                	xor    %edx,%edx
    389a:	48 89 e5             	mov    %rsp,%rbp
    389d:	48 83 ec 10          	sub    $0x10,%rsp
    38a1:	c7 47 0a 00 00 00 00 	movl   $0x0,0xa(%rdi)
    38a8:	65 48 8b 04 25 28 00 	mov    %gs:0x28,%rax
    38af:	00 00 
    38b1:	48 89 45 f8          	mov    %rax,-0x8(%rbp)
    38b5:	31 c0                	xor    %eax,%eax
    38b7:	0f b7 47 08          	movzwl 0x8(%rdi),%eax
    38bb:	48 8d 75 f4          	lea    -0xc(%rbp),%rsi
    38bf:	25 ff 07 00 00       	and    $0x7ff,%eax
    38c4:	c1 e0 07             	shl    $0x7,%eax
    38c7:	83 c8 18             	or     $0x18,%eax
    38ca:	89 45 f4             	mov    %eax,-0xc(%rbp)
    38cd:	e8 2e f4 ff ff       	callq  2d00 <qdma_program_ctxt>
    38d2:	48 8b 55 f8          	mov    -0x8(%rbp),%rdx
    38d6:	65 48 33 14 25 28 00 	xor    %gs:0x28,%rdx
    38dd:	00 00 
    38df:	75 02                	jne    38e3 <qdma_clear_fmap_ctxt+0x53>
    38e1:	c9                   	leaveq 
    38e2:	c3                   	retq   
    38e3:	e8 00 00 00 00       	callq  38e8 <qdma_clear_fmap_ctxt+0x58>
    38e8:	0f 1f 84 00 00 00 00 	nopl   0x0(%rax,%rax,1)
    38ef:	00 

00000000000038f0 <qdma_invalidate_fmap_ctxt>:
    38f0:	e8 00 00 00 00       	callq  38f5 <qdma_invalidate_fmap_ctxt+0x5>
    38f5:	55                   	push   %rbp
    38f6:	31 c9                	xor    %ecx,%ecx
    38f8:	31 d2                	xor    %edx,%edx
    38fa:	48 89 e5             	mov    %rsp,%rbp
    38fd:	48 83 ec 10          	sub    $0x10,%rsp
    3901:	c7 47 0a 00 00 00 00 	movl   $0x0,0xa(%rdi)
    3908:	65 48 8b 04 25 28 00 	mov    %gs:0x28,%rax
    390f:	00 00 
    3911:	48 89 45 f8          	mov    %rax,-0x8(%rbp)
    3915:	31 c0                	xor    %eax,%eax
    3917:	0f b7 47 08          	movzwl 0x8(%rdi),%eax
    391b:	48 8d 75 f4          	lea    -0xc(%rbp),%rsi
    391f:	25 ff 07 00 00       	and    $0x7ff,%eax
    3924:	c1 e0 07             	shl    $0x7,%eax
    3927:	83 c8 18             	or     $0x18,%eax
    392a:	89 45 f4             	mov    %eax,-0xc(%rbp)
    392d:	e8 ce f3 ff ff       	callq  2d00 <qdma_program_ctxt>
    3932:	48 8b 55 f8          	mov    -0x8(%rbp),%rdx
    3936:	65 48 33 14 25 28 00 	xor    %gs:0x28,%rdx
    393d:	00 00 
    393f:	75 02                	jne    3943 <qdma_invalidate_fmap_ctxt+0x53>
    3941:	c9                   	leaveq 
    3942:	c3                   	retq   
    3943:	e8 00 00 00 00       	callq  3948 <qdma_invalidate_fmap_ctxt+0x58>
    3948:	0f 1f 84 00 00 00 00 	nopl   0x0(%rax,%rax,1)
    394f:	00 

0000000000003950 <qdma_create_dev>:
    3950:	e8 00 00 00 00       	callq  3955 <qdma_create_dev+0x5>
    3955:	55                   	push   %rbp
    3956:	40 80 fe 06          	cmp    $0x6,%sil
    395a:	48 89 e5             	mov    %rsp,%rbp
    395d:	41 55                	push   %r13
    395f:	41 54                	push   %r12
    3961:	49 89 fd             	mov    %rdi,%r13
    3964:	53                   	push   %rbx
    3965:	41 89 f4             	mov    %esi,%r12d
    3968:	0f 87 85 00 00 00    	ja     39f3 <qdma_create_dev+0xa3>
    396e:	48 8b 3d 00 00 00 00 	mov    0x0(%rip),%rdi        # 3975 <qdma_create_dev+0x25>
    3975:	ba 18 00 00 00       	mov    $0x18,%edx
    397a:	be c0 0d 00 00       	mov    $0xdc0,%esi
    397f:	e8 00 00 00 00       	callq  3984 <qdma_create_dev+0x34>
    3984:	48 85 c0             	test   %rax,%rax
    3987:	48 89 c3             	mov    %rax,%rbx
    398a:	74 48                	je     39d4 <qdma_create_dev+0x84>
    398c:	4c 89 28             	mov    %r13,(%rax)
    398f:	41 0f b7 45 38       	movzwl 0x38(%r13),%eax
    3994:	83 e0 07             	and    $0x7,%eax
    3997:	66 89 43 08          	mov    %ax,0x8(%rbx)
    399b:	41 0f b6 c4          	movzbl %r12b,%eax
    399f:	48 89 c6             	mov    %rax,%rsi
    39a2:	48 c1 e0 06          	shl    $0x6,%rax
    39a6:	4c 01 e8             	add    %r13,%rax
    39a9:	48 8b 88 90 03 00 00 	mov    0x390(%rax),%rcx
    39b0:	48 8b 80 98 03 00 00 	mov    0x398(%rax),%rax
    39b7:	48 85 c9             	test   %rcx,%rcx
    39ba:	74 22                	je     39de <qdma_create_dev+0x8e>
    39bc:	48 8d 50 01          	lea    0x1(%rax),%rdx
    39c0:	48 29 ca             	sub    %rcx,%rdx
    39c3:	4c 89 ef             	mov    %r13,%rdi
    39c6:	e8 00 00 00 00       	callq  39cb <qdma_create_dev+0x7b>
    39cb:	48 85 c0             	test   %rax,%rax
    39ce:	48 89 43 10          	mov    %rax,0x10(%rbx)
    39d2:	74 13                	je     39e7 <qdma_create_dev+0x97>
    39d4:	48 89 d8             	mov    %rbx,%rax
    39d7:	5b                   	pop    %rbx
    39d8:	41 5c                	pop    %r12
    39da:	41 5d                	pop    %r13
    39dc:	5d                   	pop    %rbp
    39dd:	c3                   	retq   
    39de:	31 d2                	xor    %edx,%edx
    39e0:	48 85 c0             	test   %rax,%rax
    39e3:	74 de                	je     39c3 <qdma_create_dev+0x73>
    39e5:	eb d5                	jmp    39bc <qdma_create_dev+0x6c>
    39e7:	48 89 df             	mov    %rbx,%rdi
    39ea:	31 db                	xor    %ebx,%ebx
    39ec:	e8 00 00 00 00       	callq  39f1 <qdma_create_dev+0xa1>
    39f1:	eb e1                	jmp    39d4 <qdma_create_dev+0x84>
    39f3:	48 8d bf b0 00 00 00 	lea    0xb0(%rdi),%rdi
    39fa:	40 0f b6 d6          	movzbl %sil,%edx
    39fe:	48 c7 c6 00 00 00 00 	mov    $0x0,%rsi
    3a05:	31 db                	xor    %ebx,%ebx
    3a07:	e8 00 00 00 00       	callq  3a0c <qdma_create_dev+0xbc>
    3a0c:	eb c6                	jmp    39d4 <qdma_create_dev+0x84>
    3a0e:	66 90                	xchg   %ax,%ax

0000000000003a10 <qdma_destroy_dev>:
    3a10:	e8 00 00 00 00       	callq  3a15 <qdma_destroy_dev+0x5>
    3a15:	48 85 ff             	test   %rdi,%rdi
    3a18:	74 1f                	je     3a39 <qdma_destroy_dev+0x29>
    3a1a:	55                   	push   %rbp
    3a1b:	48 89 e5             	mov    %rsp,%rbp
    3a1e:	53                   	push   %rbx
    3a1f:	48 89 fb             	mov    %rdi,%rbx
    3a22:	48 8b 77 10          	mov    0x10(%rdi),%rsi
    3a26:	48 8b 3f             	mov    (%rdi),%rdi
    3a29:	e8 00 00 00 00       	callq  3a2e <qdma_destroy_dev+0x1e>
    3a2e:	48 89 df             	mov    %rbx,%rdi
    3a31:	e8 00 00 00 00       	callq  3a36 <qdma_destroy_dev+0x26>
    3a36:	5b                   	pop    %rbx
    3a37:	5d                   	pop    %rbp
    3a38:	c3                   	retq   
    3a39:	f3 c3                	repz retq 

Disassembly of section .init.text:

0000000000000000 <init_module>:
   0:	e8 00 00 00 00       	callq  5 <init_module+0x5>
   5:	55                   	push   %rbp
   6:	48 c7 c2 00 00 00 00 	mov    $0x0,%rdx
   d:	48 c7 c6 00 00 00 00 	mov    $0x0,%rsi
  14:	48 c7 c7 00 00 00 00 	mov    $0x0,%rdi
  1b:	48 89 e5             	mov    %rsp,%rbp
  1e:	e8 00 00 00 00       	callq  23 <init_module+0x23>
  23:	48 c7 c2 00 00 00 00 	mov    $0x0,%rdx
  2a:	48 c7 c6 00 00 00 00 	mov    $0x0,%rsi
  31:	48 c7 c7 00 00 00 00 	mov    $0x0,%rdi
  38:	e8 00 00 00 00       	callq  3d <init_module+0x3d>
  3d:	5d                   	pop    %rbp
  3e:	c3                   	retq   

Disassembly of section .exit.text:

0000000000000000 <cleanup_module>:
   0:	55                   	push   %rbp
   1:	48 c7 c7 00 00 00 00 	mov    $0x0,%rdi
   8:	48 89 e5             	mov    %rsp,%rbp
   b:	e8 00 00 00 00       	callq  10 <cleanup_module+0x10>
  10:	5d                   	pop    %rbp
  11:	c3                   	retq   
